(dp0
I0
(iasset
Asset
p1
(dp2
S'_price'
p3
I2099
sS'_dimension'
p4
(dp5
S'width'
p6
F6.42
sS'depth'
p7
F7.42
sS'height'
p8
F3.08
ssS'_theme'
p9
VMid Century
p10
sS'_category'
p11
VFurniture
p12
sS'_name'
p13
VAtwood Queen Bed without Bookcase Footboard
p14
sS'_subcategory'
p15
VBeds
p16
sS'_room_fit'
p17
VMaster Bedroom
p18
sS'_vertical'
p19
VQueen Sized Beds
p20
sS'_id'
p21
V5c2082d29222900fd2b79328
p22
sS'_brand'
p23
VCrate And Barrel
p24
sbsI1
(iasset
Asset
p25
(dp26
g3
F236.99
sg4
(dp27
g6
F1.67
sg7
F1.33
sg8
F1.83
ssg9
VMid Century
p28
sg11
g12
sg13
VTanya Mid-Century 1 Drawer Nightstand
p29
sg15
VTables
p30
sg17
VMaster Bedroom
p31
sg19
VBedside Tables
p32
sg21
V5c1f54c99222900fd2b771f2
p33
sg23
VWayfair
p34
sbsI2
(iasset
Asset
p35
(dp36
g3
I449
sg4
(dp37
g6
F1.92
sg7
F1.52
sg8
F2.08
ssg9
VMid Century
p38
sg11
g12
sg13
VTate Nightstand
p39
sg15
g30
sg17
VMaster Bedroom
p40
sg19
g32
sg21
V5c1cd1529222900fd2b76d1c
p41
sg23
VPottery Barn
p42
sbsI3
(iasset
Asset
p43
(dp44
g3
I1099
sg4
(dp45
g6
F2.67
sg7
F1.67
sg8
F4.23
ssg9
VMid Century
p46
sg11
g12
sg13
VTate 5-Drawer Chest
p47
sg15
VDrawers
p48
sg17
VMaster Bedroom
p49
sg19
VChest of Drawers
p50
sg21
V5c1c8e9d9222900fd2b76b88
p51
sg23
VCrate And Barrel
p52
sbsI4
(iasset
Asset
p53
(dp54
g3
I499
sg4
(dp55
g6
F2.67
sg7
F2.67
sg8
F2.38
ssg9
VMid Century
p56
sg11
VLighting
p57
sg13
VVERANDA ROUND CHANDELIER
p58
sg15
VLights
p59
sg17
VLiving Room
p60
sg19
VChandeliers
p61
sg21
V5c1b92ef9222900fd2b76867
p62
sg23
VPottery Barn
p63
sbsI5
(iasset
Asset
p64
(dp65
g3
I419
sg4
(dp66
g6
F1.46
sg7
F1.46
sg8
F1.04
ssg9
VMid Century
p67
sg11
g57
sg13
VGEMMA CRYSTAL TIERED FLUSH MOUNT
p68
sg15
g59
sg17
VLiving Room
p69
sg19
g61
sg21
V5c1a4c146126890722f61aa0
p70
sg23
VPottery Barn
p71
sbsI6
(iasset
Asset
p72
(dp73
g3
I399
sg4
(dp74
g6
F1.25
sg7
F1.25
sg8
F1.92
ssg9
VTRANSITIONAL
p75
sg11
g12
sg13
VClayhill end table
p76
sg15
g30
sg17
VLiving Room
p77
sg19
VEnd Tables
p78
sg21
V5c18ff446126890722f60a27
p79
sg23
VArhaus
p80
sbsI7
(iasset
Asset
p81
(dp82
g3
I389
sg4
(dp83
g6
F1.63
sg7
F1.63
sg8
F5.42
ssg9
VMid Century
p84
sg11
g57
sg13
VGRACIE SHELF FLOOR LAMP
p85
sg15
VLamps
p86
sg17
VLiving Room
p87
sg19
VFloor Lamps
p88
sg21
V5c18f3516126890722f60884
p89
sg23
VPottery Barn
p90
sbsI8
(iasset
Asset
p91
(dp92
g3
F629.1
sg4
(dp93
g6
F1.83
sg7
F1.83
sg8
F2.67
ssg9
VMid Century
p94
sg11
g57
sg13
VWooden prism chandelier with wrought iron candelabra
p95
sg15
g59
sg17
VLiving and Dining Room
p96
sg19
g61
sg21
V5c18d9f16126890722f60240
p97
sg23
VArhaus
p98
sbsI9
(iasset
Asset
p99
(dp100
g3
I40
sg4
(dp101
g6
I6
sg7
F1.17
sg8
F2.5
ssg9
VIndustrial
p102
sg11
g12
sg13
VTHADDEUS FORGED IRON & GLASS CONSOLE TABLE
p103
sg15
g30
sg17
VLiving Room
p104
sg19
VConsole Tables
p105
sg21
V5c18ca016126890722f60048
p106
sg23
VRestoration Hardware
p107
sbsI10
(iasset
Asset
p108
(dp109
g3
I1895
sg4
(dp110
g6
F3.17
sg7
F3.17
sg8
F6.67
ssg9
VIndustrial
p111
sg11
g57
sg13
VCAMINO VINTAGE CANDELABRA ROUND CHANDELIER 38"
p112
sg15
g59
sg17
VLiving Room
p113
sg19
g61
sg21
V5c17d8c66126890722f5f7a4
p114
sg23
VRestoration Hardware
p115
sbsI11
(iasset
Asset
p116
(dp117
g3
I974
sg4
(dp118
g6
F2.33
sg7
F2.96
sg8
F2.42
ssg9
VMid Century
p119
sg11
g12
sg13
VRAYLAN LEATHER ARMCHAIR
p120
sg15
VChairs
p121
sg17
VLiving Room
p122
sg19
VAccent Chairs
p123
sg21
V5c1790046126890722f5eec0
p124
sg23
VPottery Barn
p125
sbsI12
(iasset
Asset
p126
(dp127
g3
I499
sg4
(dp128
g6
F2.25
sg7
F1.42
sg8
F2.17
ssg9
VMid Century
p129
sg11
g12
sg13
VGRIFFIN RECLAIMED WOOD END TABLE
p130
sg15
g30
sg17
VLiving Room
p131
sg19
g78
sg21
V5c17783a6126890722f5eeaa
p132
sg23
VPottery Barn
p133
sbsI13
(iasset
Asset
p134
(dp135
g3
I1099
sg4
(dp136
g6
I5
sg7
F3.5
sg8
F1.58
ssg9
VMid Century
p137
sg11
g12
sg13
VGriffin Reclaimed Wood Coffee Table
p138
sg15
g30
sg17
VLiving Room
p139
sg19
VCoffee Tables
p140
sg21
V5c176a4b6126890722f5ee9f
p141
sg23
VPottery Barn
p142
sbsI14
(iasset
Asset
p143
(dp144
g3
I399
sg4
(dp145
g6
F1.5
sg7
F0.92
sg8
F2.52
ssg9
VCONTEMPORARY
p146
sg11
g57
sg13
VBarton Glass and Metal Table Lamp
p147
sg15
g86
sg17
VLiving Room
p148
sg19
VTable Lamps
p149
sg21
V5c125a63362cf55817e9819a
p150
sg23
VCrate And Barrel
p151
sbsI15
(iasset
Asset
p152
(dp153
g3
I17
sg4
(dp154
g6
F2.58
sg7
F2.58
sg8
F3.42
ssg9
VCONTEMPORARY
p155
sg11
g57
sg13
VAva Large Chandelier
p156
sg15
g59
sg17
VLiving Room
p157
sg19
g61
sg21
V5c122a39b207e30c43207ec3
p158
sg23
VCrate And Barrel
p159
sbsI16
(iasset
Asset
p160
(dp161
g3
I1050
sg4
(dp162
g6
F5.54
sg7
F1.54
sg8
F6.15
ssg9
VTRANSITIONAL
p163
sg11
g12
sg13
VWYATT DOUBLE SHELVING
p164
sg15
VDisplay Units
p165
sg17
VLiving Room
p166
sg19
VShowcase Units
p167
sg21
V5c11fc3eb207e30c43207e81
p168
sg23
VRestoration Hardware
p169
sbsI17
(iasset
Asset
p170
(dp171
g3
I1399
sg4
(dp172
g6
F4.92
sg7
F3.44
sg8
F1.73
ssg9
VTraditional
p173
sg11
g12
sg13
VAcero coffee table
p174
sg15
g30
sg17
VLiving Room
p175
sg19
g140
sg21
V5c11193fb207e30c43207e5a
p176
sg23
VArhaus
p177
sbsI18
(iasset
Asset
p178
(dp179
g3
I299
sg4
(dp180
g6
F3.75
sg7
F1.5
sg8
F5.92
ssg9
VCONTEMPORARY
p181
sg11
g57
sg13
VDexter Arc Floor Lamp with White Shade
p182
sg15
g86
sg17
VLiving Room
p183
sg19
g88
sg21
V5c10ef3cb207e30c43207c0a
p184
sg23
VCrate And Barrel
p185
sbsI19
(iasset
Asset
p186
(dp187
g3
I499
sg4
(dp188
g6
F2.83
sg7
F2.83
sg8
I4
ssg9
VHollywood Regency
p189
sg11
g57
sg13
VSputnik Chandelier - Brass
p190
sg15
g59
sg17
VLiving Room
p191
sg19
g61
sg21
V5c0a58f6b207e30c4320207c
p192
sg23
VWest Elm
p193
sbsI20
(iasset
Asset
p194
(dp195
g3
I146
sg4
(dp196
g6
F1.16
sg7
F1.16
sg8
F2.16
ssg9
VCONTEMPORARY
p197
sg11
g57
sg13
VTelescoping Table Lamp - Black
p198
sg15
g86
sg17
VMaster Bedroom
p199
sg19
g149
sg21
V5c095834b207e30c43201afa
p200
sg23
VWest Elm
p201
sbsI21
(iasset
Asset
p202
(dp203
g3
I799
sg4
(dp204
g6
I5
sg7
I2
sg8
F1.45
ssg9
VMid Century
p205
sg11
g12
sg13
VMid-Century Pop-Up Storage Coffee Table
p206
sg15
g30
sg17
VLiving Room
p207
sg19
g140
sg21
V5c08c49ab065453814eb8e31
p208
sg23
VWest Elm
p209
sbsI22
(iasset
Asset
p210
(dp211
g3
F70.99
sg4
(dp212
g6
F1.33
sg7
F0.06
sg8
F2.16
ssg9
VMid Century
p213
sg11
VDecor
p214
sg13
VRustic Bronze Wall Mirror
p215
sg15
VMirrors
p216
sg17
VLiving Room
p217
sg19
VWall Mirrors
p218
sg21
V5bfe8018bf05724c0cedcfa4
p219
sg23
VWayfair
p220
sbsI23
(iasset
Asset
p221
(dp222
g3
F27.99
sg4
(dp223
g6
F0.91
sg7
F0.12
sg8
F1.16
ssg9
VMid Century
p224
sg11
VWall Art
p225
sg13
VBird Painting Print on Canvas
p226
sg15
Vpaintings
p227
sg17
VLiving Room
p228
sg19
Vabstract paintings
p229
sg21
V5bfe5d53bf05724c0cedcd35
p230
sg23
VWayfair
p231
sbsI24
(iasset
Asset
p232
(dp233
g3
F54.99
sg4
(dp234
g6
F1.33
sg7
F0.25
sg8
F1.33
ssg9
VMid Century
p235
sg11
VFurnishing
p236
sg13
VMadison Outdoor Throw Pillow
p237
sg15
VCushions
p238
sg17
VLiving Room
p239
sg19
VCushions
p240
sg21
V5bfe49b6bf05724c0cedcce8
p241
sg23
VWayfair
p242
sbsI25
(iasset
Asset
p243
(dp244
g3
F35.99
sg4
(dp245
g6
F1.5
sg7
F0.5
sg8
F1.5
ssg9
VMid Century
p246
sg11
g236
sg13
VBehan Dot 100% Cotton Throw Pillow
p247
sg15
g238
sg17
VLiving Room
p248
sg19
g240
sg21
V5bfe42f5bf05724c0cedcb4b
p249
sg23
VWayfair
p250
sbsI26
(iasset
Asset
p251
(dp252
g3
F83.99
sg4
(dp253
g6
F4.05
sg7
F1.15
sg8
F1.25
ssg9
VMid Century
p254
sg11
g12
sg13
VWhitney TV Stand for TVs up to 48"
p255
sg15
VTV Units
p256
sg17
VLiving Room
p257
sg19
VTV Units
p258
sg21
V5bfe32bebf05724c0cedca1c
p259
sg23
VWayfair
p260
sbsI27
(iasset
Asset
p261
(dp262
g3
F139.8
sg4
(dp263
g6
F2.06
sg7
F1.33
sg8
I6
ssg9
VMid Century
p264
sg11
g12
sg13
VAldo Ladder Bookcase
p265
sg15
g165
sg17
VLiving Room
p266
sg19
VBookshelves
p267
sg21
V5bfd3005bf05724c0cedc5b6
p268
sg23
VWayfair
p269
sbsI28
(iasset
Asset
p270
(dp271
g3
F175.99
sg4
(dp272
g6
F2.88
sg7
F1.22
sg8
F2.88
ssg9
VMid Century
p273
sg11
g12
sg13
VBirchfield 4 Drawer Chest
p274
sg15
g48
sg17
VLiving Room
p275
sg19
g50
sg21
V5bfd05d3bf05724c0cedc321
p276
sg23
VWayfair
p277
sbsI29
(iasset
Asset
p278
(dp279
g3
F111.11
sg4
(dp280
g6
F1.58
sg7
F1.58
sg8
I5
ssg9
VMid Century
p281
sg11
g57
sg13
VMackenzie 60" Floor Lamp
p282
sg15
g86
sg17
VLiving Room
p283
sg19
g88
sg21
V5bfbf63dbf05724c0cedbde1
p284
sg23
VWayfair
p285
sbsI30
(iasset
Asset
p286
(dp287
g3
F164.99
sg4
(dp288
g6
F3.93
sg7
F1.12
sg8
F2.5
ssg9
VMid Century
p289
sg11
g12
sg13
VCreenagh Console Table
p290
sg15
g30
sg17
VLiving Room
p291
sg19
g105
sg21
V5bfab6fc2a043636737e3512
p292
sg23
VWayfair
p293
sbsI31
(iasset
Asset
p294
(dp295
g3
F79.99
sg4
(dp296
g6
F4.05
sg7
F1.15
sg8
F1.25
ssg9
VMid Century
p297
sg11
g12
sg13
VWhitney TV Stand for TVs up to 48
p298
sg15
g256
sg17
VLiving Room
p299
sg19
g258
sg21
V5bf918ca9412a81cd41b3d4d
p300
sg23
VWayfair
p301
sbsI32
(iasset
Asset
p302
(dp303
g3
F515.22
sg4
(dp304
g6
I5
sg7
F2.95
sg8
F2.44
ssg9
VMid Century
p305
sg11
g12
sg13
VDundas 5 Piece Dining Set
p306
sg15
VDining
p307
sg17
VLiving and Dining Room
p308
sg19
V4 Seater Dining Table Sets
p309
sg21
V5bf8f5cb9412a81cd41b3ce3
p310
sg23
VWayfair
p311
sbsI33
(iasset
Asset
p312
(dp313
g3
F143.99
sg4
(dp314
g6
F2.33
sg7
F2.33
sg8
F2.54
ssg9
VMid Century
p315
sg11
g12
sg13
VIzabella Armchair
p316
sg15
g121
sg17
VLiving Room
p317
sg19
g123
sg21
V5bf85aa29412a81cd41b3b4c
p318
sg23
VWayfair
p319
sbsI34
(iasset
Asset
p320
(dp321
g3
F729.99
sg4
(dp322
g6
F6.5
sg7
F2.75
sg8
F2.7
ssg9
VMid Century
p323
sg11
g12
sg13
VJohnston Tufted Upholstered Loveseat
p324
sg15
VSofas
p325
sg17
VLiving Room
p326
sg19
VLoveseats
p327
sg21
V5bf7b06296174b1aaf341188
p328
sg23
VWayfair
p329
sbsI35
(iasset
Asset
p330
(dp331
g3
I299
sg4
(dp332
g6
F1.7
sg7
F2.04
sg8
F2.7
ssg9
VMid Century
p333
sg11
g12
sg13
VVELVET DINING CHAIR
p334
sg15
g307
sg17
VDining Room
p335
sg19
VDining Chairs
p336
sg21
V5bd039c2be9ad9740a64c34d
p337
sg23
VWest Elm
p338
sbsI36
(iasset
Asset
p339
(dp340
g3
I299
sg4
(dp341
g6
F1.7
sg7
F2.04
sg8
F2.7
ssg9
VMid Century
p342
sg11
g12
sg13
VMID CENTURY DINING CHAIR
p343
sg15
g307
sg17
VLiving Room
p344
sg19
g336
sg21
V5bd03283be9ad9740a64c34b
p345
sg23
VWest Elm
p346
sbsI37
(iasset
Asset
p347
(dp348
g3
F169.99
sg4
(dp349
g6
F3.47
sg7
F1.18
sg8
F2.66
ssg9
VMid Century
p350
sg11
g12
sg13
VMid-Century Console - Acorn
p351
sg15
g30
sg17
VLiving Room
p352
sg19
g105
sg21
V5bd02413be9ad9740a64bf9d
p353
sg23
VWayfair
p354
sbsI38
(iasset
Asset
p355
(dp356
g3
I699
sg4
(dp357
g6
F2.1
sg7
F2.63
sg8
F2.69
ssg9
VMid Century
p358
sg11
g12
sg13
VMid-Century Show Wood Chair
p359
sg15
g121
sg17
VLiving Room
p360
sg19
VLounge Chairs
p361
sg21
V5bcd781dbe9ad9740a64afd3
p362
sg23
VWest Elm
p363
sbsI39
(iasset
Asset
p364
(dp365
g3
I499
sg4
(dp366
g6
F3.87
sg7
F1.35
sg8
F1.95
ssg9
VMid Century
p367
sg11
g12
sg13
VMid-Century Storage Bench - Acorn
p368
sg15
g121
sg17
VLiving Room
p369
sg19
VBenches
p370
sg21
V5bcd7338be9ad9740a64afd1
p371
sg23
VWest Elm
p372
sbsI40
(iasset
Asset
p373
(dp374
g3
I1399
sg4
(dp375
g6
F3.9
sg7
F3.9
sg8
F2.45
ssg9
VIndian
p376
sg11
g12
sg13
Vmid century round table
p377
sg15
g307
sg17
VLiving Room
p378
sg19
VDining Tables
p379
sg21
V5bc840e8be9ad9740a64a54d
p380
sg23
VWest Elm
p381
sbsI41
(iasset
Asset
p382
(dp383
g3
I699
sg4
(dp384
g6
F4.5
sg7
F2.6
sg8
F2.5
ssg9
VMid Century
p385
sg11
g12
sg13
Vmid century modern expandable table
p386
sg15
g307
sg17
VDining Room
p387
sg19
g309
sg21
V5bc73a61be9ad9740a64a38e
p388
sg23
VWest Elm
p389
sbsI42
(iasset
Asset
p390
(dp391
g3
F182.99
sg4
(dp392
g6
F1.5
sg7
I1
sg8
F6.08
ssg9
VART DECO
p393
sg11
g12
sg13
VBuchanan Mini Bookcase
p394
sg15
g165
sg17
VLiving Room
p395
sg19
g267
sg21
V5bbf2594042c5f7edcb323ad
p396
sg23
VWayfair
p397
sbsI43
(iasset
Asset
p398
(dp399
g3
F118.99
sg4
(dp400
g6
F5.91
sg7
I9
sg8
F0.05
ssg9
VART DECO
p401
sg11
g236
sg13
VMontross Blue Area Rug
p402
sg15
VCarpets & Rugs
p403
sg17
VLiving Room
p404
sg19
VSynthetic Carpets
p405
sg21
V5bbf2053042c5f7edcb323ab
p406
sg23
VWayfair
p407
sbsI44
(iasset
Asset
p408
(dp409
g3
F144.48
sg4
(dp410
g6
I5
sg7
I8
sg8
F0.05
ssg9
VCONTEMPORARY
p411
sg11
g236
sg13
VPeoPles Blue Area Rug
p412
sg15
g403
sg17
VLiving Room
p413
sg19
g405
sg21
V5bbf1ec0042c5f7edcb323aa
p414
sg23
VWayfair
p415
sbsI45
(iasset
Asset
p416
(dp417
g3
F539.99
sg4
(dp418
g6
F2.95
sg7
F2.95
sg8
F2.5
ssg9
VART DECO
p419
sg11
g12
sg13
VGoncalvo Dining Table
p420
sg15
g307
sg17
VDining Room
p421
sg19
g309
sg21
V5bbef47f042c5f7edcb322c0
p422
sg23
VWayfair
p423
sbsI46
(iasset
Asset
p424
(dp425
g3
I799
sg4
(dp426
g6
F3.66
sg7
F3.66
sg8
F2.5
ssg9
VART DECO
p427
sg11
g12
sg13
VSilhouette Pedestal Dining Table
p428
sg15
g307
sg17
VDining Room
p429
sg19
g309
sg21
V5bbeefda042c5f7edcb322be
p430
sg23
VWest Elm
p431
sbsI47
(iasset
Asset
p432
(dp433
g3
F745.22
sg4
(dp434
g6
I6
sg7
F1.5
sg8
F3.25
ssg9
VART DECO
p435
sg11
g12
sg13
VIra TV Stand
p436
sg15
g256
sg17
VLiving Room
p437
sg19
g258
sg21
V5bbeea64042c5f7edcb322bd
p438
sg23
VWayfair
p439
sbsI48
(iasset
Asset
p440
(dp441
g3
F641.92
sg4
(dp442
g6
I5
sg7
F1.33
sg8
I3
ssg9
VART DECO
p443
sg11
g12
sg13
VKeiper Distressed Tin Pressed Credenza
p444
sg15
g256
sg17
VLiving Room
p445
sg19
g258
sg21
V5bbee803042c5f7edcb322bc
p446
sg23
VWayfair
p447
sbsI49
(iasset
Asset
p448
(dp449
g3
F459.99
sg4
(dp450
g6
F1.95
sg7
F1.83
sg8
F2.95
ssg9
VART DECO
p451
sg11
g12
sg13
VMira Bar Stool
p452
sg15
g121
sg17
VLiving Room
p453
sg19
VBar Chairs
p454
sg21
V5bbdee51042c5f7edcb3223b
p455
sg23
VWayfair
p456
sbsI50
(iasset
Asset
p457
(dp458
g3
F589.99
sg4
(dp459
g6
F1.62
sg7
F1.75
sg8
F3.45
ssg9
VART DECO
p460
sg11
g12
sg13
VAmalfi Bar Stool
p461
sg15
g121
sg17
VLiving Room
p462
sg19
g454
sg21
V5bbdeba7042c5f7edcb3223a
p463
sg23
VWayfair
p464
sbsI51
(iasset
Asset
p465
(dp466
g3
F717.21
sg4
(dp467
g6
F1.33
sg7
F0.66
sg8
F5.16
ssg9
VART DECO
p468
sg11
g57
sg13
VClara Gold Leaf Floor Lamp
p469
sg15
g86
sg17
VLiving Room
p470
sg19
g88
sg21
V5bbdc2a8042c5f7edcb32178
p471
sg23
VCrate And Barrel
p472
sbsI52
(iasset
Asset
p473
(dp474
g3
F249.99
sg4
(dp475
g6
F3.91
sg7
F1.95
sg8
F1.54
ssg9
VART DECO
p476
sg11
g12
sg13
VAstor Coffee Table
p477
sg15
g30
sg17
VLiving Room
p478
sg19
g140
sg21
V5bbdb338042c5f7edcb32174
p479
sg23
VWayfair
p480
sbsI53
(iasset
Asset
p481
(dp482
g3
I929
sg4
(dp483
g6
F3.16
sg7
F3.16
sg8
F1.41
ssg9
VART DECO
p484
sg11
g12
sg13
VConstantin Coffee Table
p485
sg15
g30
sg17
VLiving Room
p486
sg19
g140
sg21
V5bbdacf3042c5f7edcb32168
p487
sg23
VWayfair
p488
sbsI54
(iasset
Asset
p489
(dp490
g3
F42.99
sg4
(dp491
g6
F1.5
sg7
F0.12
sg8
F1.5
ssg9
VART DECO
p492
sg11
g225
sg13
VArt Deco III
p493
sg15
Vart panels
p494
sg17
VLiving Room
p495
sg19
Vabstract art panels
p496
sg21
V5bbda67f042c5f7edcb32167
p497
sg23
VWayfair
p498
sbsI55
(iasset
Asset
p499
(dp500
g3
F40.99
sg4
(dp501
g6
F1.33
sg7
F0.33
sg8
F1.33
ssg9
VART DECO
p502
sg11
g236
sg13
VArt Deco Lady Throw Pillow
p503
sg15
g238
sg17
VLiving Room
p504
sg19
VPillows
p505
sg21
V5bbda487042c5f7edcb32166
p506
sg23
VWayfair
p507
sbsI56
(iasset
Asset
p508
(dp509
g3
F14.59
sg4
(dp510
g6
F5.16
sg7
F7.16
sg8
F0.05
ssg9
VART DECO
p511
sg11
g236
sg13
VEdolie Area Rug
p512
sg15
g403
sg17
VLiving Room
p513
sg19
g405
sg21
V5bbd9eae042c5f7edcb3215c
p514
sg23
VWayfair
p515
sbsI57
(iasset
Asset
p516
(dp517
g3
F75.99
sg4
(dp518
g6
F5.16
sg7
F7.58
sg8
F0.05
ssg9
VART DECO
p519
sg11
g236
sg13
VArt Deco Teal Area Rug
p520
sg15
g403
sg17
VLiving Room
p521
sg19
g405
sg21
V5bbd9e35042c5f7edcb3215b
p522
sg23
VWayfair
p523
sbsI58
(iasset
Asset
p524
(dp525
g3
F639.18
sg4
(dp526
g6
I8
sg7
I10
sg8
F0.05
ssg9
VCONTEMPORARY
p527
sg11
g236
sg13
Vdoppler black and white rug
p528
sg15
g403
sg17
VLiving Room
p529
sg19
VCotton Carpets
p530
sg21
V5bbc91387045b9743ee74398
p531
sg23
VCB2
p532
sbsI59
(iasset
Asset
p533
(dp534
g3
I419
sg4
(dp535
g6
F2.83
sg7
F3.04
sg8
F1.37
ssg9
VCONTEMPORARY
p536
sg11
g12
sg13
VStacked Disk Storage Coffee Table
p537
sg15
g30
sg17
VLiving Room
p538
sg19
g140
sg21
V5bbc86097045b9743ee74396
p539
sg23
VWest Elm
p540
sbsI60
(iasset
Asset
p541
(dp542
g3
I599
sg4
(dp543
g6
I3
sg7
I3
sg8
F1.33
ssg9
VCONTEMPORARY
p544
sg11
g12
sg13
VTiered Quartz Coffee Table
p545
sg15
g30
sg17
VLiving Room
p546
sg19
g140
sg21
V5bbc85927045b9743ee74395
p547
sg23
VWest Elm
p548
sbsI61
(iasset
Asset
p549
(dp550
g3
F63.99
sg4
(dp551
g6
F1.75
sg7
F0.33
sg8
F2.08
ssg9
VIndustrial
p552
sg11
g12
sg13
VPavo 16 Bottle Hanging Wine Rack
p553
sg15
g165
sg17
VLiving Room
p554
sg19
VWall Shelves
p555
sg21
V5bbc6f647045b9743ee741bd
p556
sg23
VWayfair
p557
sbsI62
(iasset
Asset
p558
(dp559
g3
F63.99
sg4
(dp560
g6
F1.75
sg7
F0.33
sg8
F2.08
ssg9
VIndustrial
p561
sg11
g12
sg13
VPavo 16 Bottle Hanging Wine Rack
p562
sg15
g165
sg17
VLiving Room
p563
sg19
g555
sg21
V5bbc6f627045b9743ee741bc
p564
sg23
VWayfair
p565
sbsI63
(iasset
Asset
p566
(dp567
g3
F37.99
sg4
(dp568
g6
F0.83
sg7
F0.33
sg8
F1.91
ssg9
VIndustrial
p569
sg11
g12
sg13
VWall Mounted Wine Rack
p570
sg15
g165
sg17
VLiving Room
p571
sg19
g555
sg21
V5bbc6ecb7045b9743ee741bb
p572
sg23
VWayfair
p573
sbsI64
(iasset
Asset
p574
(dp575
g3
I2175
sg4
(dp576
g6
I4
sg7
I4
sg8
F2.6
ssg9
VIndustrial
p577
sg11
g57
sg13
VVR Chandelier
p578
sg15
g59
sg17
VLiving Room
p579
sg19
g61
sg21
V5bbc4ec846a4a030c2aaef92
p580
sg23
VRestoration Hardware
p581
sbsI65
(iasset
Asset
p582
(dp583
g3
F85.77
sg4
(dp584
g6
F2.33
sg7
F2.33
sg8
F0.41
ssg9
VIndustrial
p585
sg11
g236
sg13
Vbraided jute floor cushion
p586
sg15
g238
sg17
VLiving Room
p587
sg19
g240
sg21
V5bbba2eb46a4a030c2aaee50
p588
sg23
VCB2
p589
sbsI66
(iasset
Asset
p590
(dp591
g3
F85.77
sg4
(dp592
g6
F2.33
sg7
F2.33
sg8
F0.41
ssg9
VIndustrial
p593
sg11
g236
sg13
Vbraided jute floor cushion
p594
sg15
g238
sg17
VLiving Room
p595
sg19
g240
sg21
V5bbba2ea46a4a030c2aaee4f
p596
sg23
VCB2
p597
sbsI67
(iasset
Asset
p598
(dp599
g3
F92.99
sg4
(dp600
g6
F2.16
sg7
F2.16
sg8
F0.5
ssg9
VIndustrial
p601
sg11
g236
sg13
VEduarda Graphic Floor Pillow
p602
sg15
g238
sg17
VLiving Room
p603
sg19
g240
sg21
V5bbba0de46a4a030c2aaee4e
p604
sg23
VWayfair
p605
sbsI68
(iasset
Asset
p606
(dp607
g3
F71.99
sg4
(dp608
g6
F2.16
sg7
F2.16
sg8
F0.5
ssg9
VModern
p609
sg11
g236
sg13
VCabana Classic Floor Pillow
p610
sg15
g238
sg17
VLiving Room
p611
sg19
g240
sg21
V5bbb9f0a46a4a030c2aaee4d
p612
sg23
VWayfair
p613
sbsI69
(iasset
Asset
p614
(dp615
g3
F1286.33
sg4
(dp616
g6
I4
sg7
I4
sg8
F2.45
ssg9
VIndustrial
p617
sg11
g12
sg13
VRound Adjustable Height Dining Table
p618
sg15
g307
sg17
VDining Room
p619
sg19
g309
sg21
V5bbb952b46a4a030c2aaee4c
p620
sg23
VCrate And Barrel
p621
sbsI70
(iasset
Asset
p622
(dp623
g3
F1071.76
sg4
(dp624
g6
F4.58
sg7
F2.95
sg8
F2.5
ssg9
VIndustrial
p625
sg11
g12
sg13
Vfuze grey dining table
p626
sg15
g307
sg17
VDining Room
p627
sg19
g309
sg21
V5bbb91c846a4a030c2aaee4b
p628
sg23
VCB2
p629
sbsI71
(iasset
Asset
p630
(dp631
g3
F427.75
sg4
(dp632
g6
F2.62
sg7
F2.62
sg8
F1.27
ssg9
VIndustrial
p633
sg11
g12
sg13
Velement coffee table
p634
sg15
g30
sg17
VLiving Room
p635
sg19
g140
sg21
V5bbb52c146a4a030c2aaecb6
p636
sg23
VCB2
p637
sbsI72
(iasset
Asset
p638
(dp639
g3
F36.99
sg4
(dp640
g6
F1.5
sg7
F0.06
sg8
F2.16
ssg9
VBohemian
p641
sg11
g225
sg13
VBohemian Feather V Painting
p642
sg15
g494
sg17
VLiving Room
p643
sg19
Vfloral art panels
p644
sg21
V5bb731570fa9482610a8a851
p645
sg23
VWayfair
p646
sbsI73
(iasset
Asset
p647
(dp648
g3
F219.99
sg4
(dp649
g6
F1.66
sg7
F0.29
sg8
F1.33
ssg9
VBohemian
p650
sg11
g225
sg13
VBohemian Birds' Print on Fabric
p651
sg15
g494
sg17
VLiving Room
p652
sg19
Vwildlife art panels
p653
sg21
V5bb72fec0fa9482610a8a845
p654
sg23
VWayfair
p655
sbsI74
(iasset
Asset
p656
(dp657
g3
F35.49
sg4
(dp658
g6
F3.25
sg7
F5.25
sg8
F0.05
ssg9
VBohemian
p659
sg11
g236
sg13
VMassaoud Area Rug
p660
sg15
g403
sg17
VMaster Bedroom
p661
sg19
VWool Carpets
p662
sg21
V5bb70ba00fa9482610a8a7a1
p663
sg23
VWayfair
p664
sbsI75
(iasset
Asset
p665
(dp666
g3
F38.99
sg4
(dp667
g6
I5
sg7
I8
sg8
F0.05
ssg9
VBohemian
p668
sg11
g236
sg13
VNewburyport Orange Area Rug
p669
sg15
g403
sg17
VLiving Room
p670
sg19
g405
sg21
V5bb70a5f0fa9482610a8a796
p671
sg23
VWayfair
p672
sbsI76
(iasset
Asset
p673
(dp674
g3
F21.99
sg4
(dp675
g6
F1.5
sg7
F0.33
sg8
F1.5
ssg9
VBohemian
p676
sg11
g236
sg13
VBilbie Square 100% Cotton Pillow Cover
p677
sg15
g238
sg17
VLiving Room
p678
sg19
VPillow Covers
p679
sg21
V5bb709530fa9482610a8a794
p680
sg23
VWayfair
p681
sbsI77
(iasset
Asset
p682
(dp683
g3
F141.6
sg4
(dp684
g6
F1.58
sg7
F1.95
sg8
F3.16
ssg9
VBohemian
p685
sg11
g12
sg13
VRidgefield Parsons Chair
p686
sg15
g121
sg17
VLiving Room
p687
sg19
g123
sg21
V5bb706840fa9482610a8a793
p688
sg23
VWayfair
p689
sbsI78
(iasset
Asset
p690
(dp691
g3
F165.99
sg4
(dp692
g6
F5.25
sg7
I1
sg8
F3.41
ssg9
VModern
p693
sg11
g12
sg13
VMonier TV Stand
p694
sg15
g256
sg17
VLiving Room
p695
sg19
g258
sg21
V5bb5e6c6148e106c53d48e6c
p696
sg23
VWayfair
p697
sbsI79
(iasset
Asset
p698
(dp699
g3
F40.99
sg4
(dp700
g6
I1
sg7
F0.25
sg8
F1.25
ssg9
VModern
p701
sg11
g214
sg13
VMetal Medallion Sculpture
p702
sg15
VCurios and showpieces
p703
sg17
VLiving Room
p704
sg19
Vshowpieces
p705
sg21
V5bb5e4f3148e106c53d48de3
p706
sg23
VWayfair
p707
sbsI80
(iasset
Asset
p708
(dp709
g3
F43.99
sg4
(dp710
g6
I2
sg7
F0.08
sg8
F1.33
ssg9
VCONTEMPORARY
p711
sg11
g225
sg13
VTurquoise Succulent
p712
sg15
g494
sg17
VLiving Room
p713
sg19
g644
sg21
V5bb5e45d148e106c53d48dd4
p714
sg23
VWayfair
p715
sbsI81
(iasset
Asset
p716
(dp717
g3
F22.99
sg4
(dp718
g6
F8.16
sg7
F9.83
sg8
F0.05
ssg9
VCONTEMPORARY
p719
sg11
g236
sg13
VBlack & Beige Area Rug
p720
sg15
g403
sg17
VLiving Room
p721
sg19
g662
sg21
V5bb5b34df6e7913d9a511db7
p722
sg23
VWayfair
p723
sbsI82
(iasset
Asset
p724
(dp725
g3
F130.22
sg4
(dp726
g6
F4.83
sg7
F1.33
sg8
F2.08
ssg9
VCONTEMPORARY
p727
sg11
g12
sg13
VBissonnette 58 TV Stand
p728
sg15
g256
sg17
VLiving Room
p729
sg19
g258
sg21
V5bb5ac99f6e7913d9a511db5
p730
sg23
VWayfair
p731
sbsI83
(iasset
Asset
p732
(dp733
g3
F600.99
sg4
(dp734
g6
F7.33
sg7
F3.08
sg8
F3.08
ssg9
VCONTEMPORARY
p735
sg11
g12
sg13
VDerry Sofa
p736
sg15
g325
sg17
VLiving Room
p737
sg19
Vsofa sets
p738
sg21
V5bb5a518f6e7913d9a511db4
p739
sg23
VWayfair
p740
sbsI84
(iasset
Asset
p741
(dp742
g3
I326
sg4
(dp743
g6
I5
sg7
F1.16
sg8
F1.5
ssg9
VRUSTIC
p744
sg11
g12
sg13
VLuro Sheesham Wood Bench
p745
sg15
g121
sg17
VLiving Room
p746
sg19
g370
sg21
V5bb4cc49f6e7913d9a511c0f
p747
sg23
VWayfair
p748
sbsI85
(iasset
Asset
p749
(dp750
g3
F92.99
sg4
(dp751
g6
F2.14
sg7
I2
sg8
F2.8
ssg9
VScandinavian
p752
sg11
g12
sg13
VTrent Side Chair-Red
p753
sg15
g121
sg17
VLiving Room
p754
sg19
g123
sg21
V5bb4aa2ff6e7913d9a511a3d
p755
sg23
VWayfair
p756
sbsI86
(iasset
Asset
p757
(dp758
g3
F110.02
sg4
(dp759
g6
F2.04
sg7
F2.1667
sg8
F2.83
ssg9
VScandinavian
p760
sg11
g12
sg13
VTrent Side Chair-Blue
p761
sg15
g121
sg17
VLiving Room
p762
sg19
g123
sg21
V5bb4a6b2f6e7913d9a511936
p763
sg23
VWayfair
p764
sbsI87
(iasset
Asset
p765
(dp766
g3
I62
sg4
(dp767
g6
I7
sg7
I10
sg8
F0.05
ssg9
VModern
p768
sg11
g236
sg13
VChenango Rectangle Cream Area Rug
p769
sg15
g403
sg17
VLiving Room
p770
sg19
g662
sg21
V5bb4a65ff6e7913d9a511935
p771
sg23
VWayfair
p772
sbsI88
(iasset
Asset
p773
(dp774
g3
I100
sg4
(dp775
g6
F0.83
sg7
F0.75
sg8
F0.83
ssg9
VScandinavian
p776
sg11
g57
sg13
VDelon 1-Light Lantern Pendant
p777
sg15
g59
sg17
VLiving Room
p778
sg19
VHanging Lights
p779
sg21
V5bb49dcbf6e7913d9a511905
p780
sg23
VWayfair
p781
sbsI89
(iasset
Asset
p782
(dp783
g3
I450
sg4
(dp784
g6
F3.91
sg7
F2.58
sg8
F1.37
ssg9
VIndustrial
p785
sg11
g12
sg13
VGordillo Coffee Table
p786
sg15
g30
sg17
VLiving Room
p787
sg19
g140
sg21
V5bb49592f6e7913d9a51186e
p788
sg23
VWayfair
p789
sbsI90
(iasset
Asset
p790
(dp791
g3
F12.99
sg4
(dp792
g6
F1.667
sg7
F0.25
sg8
F1.667
ssg9
VScandinavian
p793
sg11
g236
sg13
VAntonia Cotton Throw Pillow Cover
p794
sg15
g238
sg17
VLiving Room
p795
sg19
g679
sg21
V5bb493bcf6e7913d9a511843
p796
sg23
VWayfair
p797
sbsI91
(iasset
Asset
p798
(dp799
g3
F24.38
sg4
(dp800
g6
F1.667
sg7
F0.25
sg8
F1.667
ssg9
VScandinavian
p801
sg11
g236
sg13
VSteele Cotton Pillow Cover
p802
sg15
g238
sg17
VLiving Room
p803
sg19
g679
sg21
V5bb491cdf6e7913d9a511842
p804
sg23
VWayfair
p805
sbsI92
(iasset
Asset
p806
(dp807
g3
F12.78
sg4
(dp808
g6
F1.667
sg7
F0.25
sg8
F1.667
ssg9
VScandinavian
p809
sg11
g236
sg13
VHalverson Cotton Pillow Cover-Blue
p810
sg15
g238
sg17
VLiving Room
p811
sg19
g679
sg21
V5bb490cff6e7913d9a511841
p812
sg23
VWayfair
p813
sbsI93
(iasset
Asset
p814
(dp815
g3
F12.78
sg4
(dp816
g6
F1.5
sg7
F0.25
sg8
F1.5
ssg9
VScandinavian
p817
sg11
g236
sg13
VHalverson Cotton Pillow Cover
p818
sg15
g238
sg17
VLiving Room
p819
sg19
g679
sg21
V5bb49000f6e7913d9a511840
p820
sg23
VWayfair
p821
sbsI94
(iasset
Asset
p822
(dp823
g3
F22.49
sg4
(dp824
g6
F1.5
sg7
F0.25
sg8
F1.5
ssg9
VScandinavian
p825
sg11
g236
sg13
VJustus Cotton Pillow Cover
p826
sg15
g238
sg17
VLiving Room
p827
sg19
g679
sg21
V5bb48e7bf6e7913d9a51183f
p828
sg23
VWayfair
p829
sbsI95
(iasset
Asset
p830
(dp831
g3
F24.52
sg4
(dp832
g6
F1.6
sg7
F0.2
sg8
F1.6
ssg9
VScandinavian
p833
sg11
g236
sg13
VBilbie Square Cotton Pillow Cover
p834
sg15
g238
sg17
VLiving Room
p835
sg19
g679
sg21
V5bb48d85f6e7913d9a51182e
p836
sg23
VWayfair
p837
sbsI96
(iasset
Asset
p838
(dp839
g3
I21
sg4
(dp840
g6
F1.33
sg7
F0.33
sg8
F1.33
ssg9
VIndustrial
p841
sg11
g236
sg13
VCopeland 1 Printed Throw Pillow
p842
sg15
g238
sg17
VLiving Room
p843
sg19
g505
sg21
V5bb48765f6e7913d9a51182c
p844
sg23
VWayfair
p845
sbsI97
(iasset
Asset
p846
(dp847
g3
F233.99
sg4
(dp848
g6
F2.27
sg7
F2.44
sg8
F2.69
ssg9
VMid Century
p849
sg11
g12
sg13
VDelasandro Accent Armchair
p850
sg15
g121
sg17
VLiving Room
p851
sg19
g123
sg21
V5bb47ad7f6e7913d9a51182b
p852
sg23
VWayfair
p853
sbsI98
(iasset
Asset
p854
(dp855
g3
I87
sg4
(dp856
g6
F2.99
sg7
I1
sg8
F2.46
ssg9
VRUSTIC
p857
sg11
g12
sg13
VGalvanized Accent Shelf
p858
sg15
g165
sg17
VLiving Room
p859
sg19
g555
sg21
V5bb47a5bf6e7913d9a51182a
p860
sg23
VWayfair
p861
sbsI99
(iasset
Asset
p862
(dp863
g3
I46
sg4
(dp864
g6
I2
sg7
F0.45
sg8
F0.16
ssg9
VRUSTIC
p865
sg11
g12
sg13
VEvonne Floating Shelf
p866
sg15
g165
sg17
VLiving Room
p867
sg19
g555
sg21
V5bb47110f6e7913d9a511826
p868
sg23
VWayfair
p869
sbsI100
(iasset
Asset
p870
(dp871
g3
I188
sg4
(dp872
g6
F2.95
sg7
F2.95
sg8
F1.05
ssg9
VRUSTIC
p873
sg11
g12
sg13
VTreece Coffee Table
p874
sg15
g30
sg17
VLiving Room
p875
sg19
g140
sg21
V5bb37489f6e7913d9a511540
p876
sg23
VWayfair
p877
sbsI101
(iasset
Asset
p878
(dp879
g3
I516
sg4
(dp880
g6
F5.33
sg7
I3
sg8
F1.66
ssg9
VCONTEMPORARY
p881
sg11
g12
sg13
VMasuda 2 Piece Coffee Table Set
p882
sg15
g30
sg17
VLiving Room
p883
sg19
g140
sg21
V5bb36ec7f6e7913d9a511423
p884
sg23
VWayfair
p885
sbsI102
(iasset
Asset
p886
(dp887
g3
I189
sg4
(dp888
g6
F0.83
sg7
F0.83
sg8
F5.8
ssg9
VCONTEMPORARY
p889
sg11
g57
sg13
VAakash Floor Lamp
p890
sg15
g86
sg17
VLiving Room
p891
sg19
g88
sg21
V5bb365daf6e7913d9a51140f
p892
sg23
VWayfair
p893
sbsI103
(iasset
Asset
p894
(dp895
g3
F153.99
sg4
(dp896
g6
F1.5
sg7
F1.5
sg8
F1.18
ssg9
VScandinavian
p897
sg11
g12
sg13
VHowerton Coffee Table
p898
sg15
g30
sg17
VLiving Room
p899
sg19
g140
sg21
V5bb361c3f6e7913d9a511403
p900
sg23
VWayfair
p901
sbsI104
(iasset
Asset
p902
(dp903
g3
I42
sg4
(dp904
g6
F1.5
sg7
F0.12
sg8
F1.5
ssg9
VRUSTIC
p905
sg11
g225
sg13
VHigh Country Moose
p906
sg15
g494
sg17
VLiving Room
p907
sg19
g653
sg21
V5bb35f7ff6e7913d9a5113f5
p908
sg23
VWayfair
p909
sbsI105
(iasset
Asset
p910
(dp911
g3
I39
sg4
(dp912
g6
I2
sg7
F0.12
sg8
I2
ssg9
VRUSTIC
p913
sg11
g225
sg13
VNature's Palette II
p914
sg15
g494
sg17
VLiving Room
p915
sg19
VLandscape Art Panels
p916
sg21
V5bb35bb1f6e7913d9a5113e8
p917
sg23
VWayfair
p918
sbsI106
(iasset
Asset
p919
(dp920
g3
I40
sg4
(dp921
g6
F0.58
sg7
F0.0525
sg8
F0.94
ssg9
VScandinavian
p922
sg11
g214
sg13
VDima Mirror Set-Black
p923
sg15
g216
sg17
VLiving Room
p924
sg19
g218
sg21
V5bb35af3f6e7913d9a5113e7
p925
sg23
VAll Modern
p926
sbsI107
(iasset
Asset
p927
(dp928
g3
I40
sg4
(dp929
g6
F0.58
sg7
F0.0525
sg8
F0.94
ssg9
VScandinavian
p930
sg11
g214
sg13
VDima Mirror Set-Copper
p931
sg15
g216
sg17
VLiving Room
p932
sg19
g218
sg21
V5bb359baf6e7913d9a5113cf
p933
sg23
VAll Modern
p934
sbsI108
(iasset
Asset
p935
(dp936
g3
I42
sg4
(dp937
g6
I2
sg7
F0.12
sg8
F1.33
ssg9
VRUSTIC
p938
sg11
g225
sg13
VBranching Out III
p939
sg15
g494
sg17
VLiving Room
p940
sg19
g916
sg21
V5bb3597ef6e7913d9a5113ce
p941
sg23
VWayfair
p942
sbsI109
(iasset
Asset
p943
(dp944
g3
I272
sg4
(dp945
g6
F4.44
sg7
F1.5
sg8
F2.49
ssg9
VIndustrial
p946
sg11
g12
sg13
VSchuyler TV Stand
p947
sg15
g256
sg17
VLiving Room
p948
sg19
g258
sg21
V5bb35697f6e7913d9a5113c3
p949
sg23
VWayfair
p950
sbsI110
(iasset
Asset
p951
(dp952
g3
I1379
sg4
(dp953
g6
F5.5
sg7
F1.44
sg8
F3.2
ssg9
VRUSTIC
p954
sg11
g12
sg13
VPullman TV Stand
p955
sg15
g256
sg17
VLiving Room
p956
sg19
g258
sg21
V5bb35253f6e7913d9a5113c2
p957
sg23
VWayfair
p958
sbsI111
(iasset
Asset
p959
(dp960
g3
F79.95
sg4
(dp961
g6
F1.667
sg7
F1.667
sg8
F1.167
ssg9
VScandinavian
p962
sg11
g12
sg13
Vknitted silver grey pouf
p963
sg15
g121
sg17
VLiving Room
p964
sg19
VPoufs
p965
sg21
V5bb34d39f6e7913d9a5113c1
p966
sg23
VCB2
p967
sbsI112
(iasset
Asset
p968
(dp969
g3
F59.95
sg4
(dp970
g6
F1.667
sg7
F0.1
sg8
F1.667
ssg9
VScandinavian
p971
sg11
g236
sg13
Vasterix geometric pillow
p972
sg15
g238
sg17
VLiving Room
p973
sg19
g679
sg21
V5bb348c3f6e7913d9a511393
p974
sg23
VCB2
p975
sbsI113
(iasset
Asset
p976
(dp977
g3
F39.95
sg4
(dp978
g6
F1.667
sg7
F0.5
sg8
F1.667
ssg9
VMid Century
p979
sg11
g236
sg13
Vglitterati gold pillow
p980
sg15
g238
sg17
VLiving Room
p981
sg19
g505
sg21
V5bb33f2d6359cc2b9ebc1180
p982
sg23
VCB2
p983
sbsI114
(iasset
Asset
p984
(dp985
g3
F118.99
sg4
(dp986
g6
F1.667
sg7
F0.125
sg8
F1.667
ssg9
VScandinavian
p987
sg11
g225
sg13
VMid Century Pyramids
p988
sg15
g494
sg17
VLiving Room
p989
sg19
g496
sg21
V5bb33b826359cc2b9ebc117e
p990
sg23
VWayfair
p991
sbsI115
(iasset
Asset
p992
(dp993
g3
F62.99
sg4
(dp994
g6
F1.5
sg7
F0.125
sg8
I1
ssg9
VMid Century
p995
sg11
g225
sg13
VMid Century II Graphic Art
p996
sg15
g494
sg17
VLiving Room
p997
sg19
g496
sg21
V5bb339376359cc2b9ebc117d
p998
sg23
VWayfair
p999
sbsI116
(iasset
Asset
p1000
(dp1001
g3
F55.99
sg4
(dp1002
g6
F1.5
sg7
F0.125
sg8
I1
ssg9
VMid Century
p1003
sg11
g225
sg13
VMid Century - Three Trees
p1004
sg15
g494
sg17
VLiving Room
p1005
sg19
g496
sg21
V5bb3383e6359cc2b9ebc117c
p1006
sg23
VWayfair
p1007
sbsI117
(iasset
Asset
p1008
(dp1009
g3
I435
sg4
(dp1010
g6
F4.5
sg7
F0.05
sg8
I6
ssg9
VIndustrial
p1011
sg11
g225
sg13
VLouise Gray Quilt
p1012
sg15
g494
sg17
VLiving Room
p1013
sg19
g496
sg21
V5baf4eb16ba8514ed50c5bd0
p1014
sg23
VWest Elm
p1015
sbsI118
(iasset
Asset
p1016
(dp1017
g3
I250
sg4
(dp1018
g6
I3
sg7
F0.05
sg8
I4
ssg9
VIndustrial
p1019
sg11
g225
sg13
VLouise Gray Little Quilt
p1020
sg15
g494
sg17
VLiving Room
p1021
sg19
g496
sg21
V5baf4cd06ba8514ed50c5bcf
p1022
sg23
VWest Elm
p1023
sbsI119
(iasset
Asset
p1024
(dp1025
g3
I239
sg4
(dp1026
g6
F2.16
sg7
F0.05
sg8
F2.83
ssg9
VModern
p1027
sg11
g225
sg13
VMinted - Seawall
p1028
sg15
g494
sg17
VLiving Room
p1029
sg19
g496
sg21
V5bae02a56ba8514ed50c5b98
p1030
sg23
VWest Elm
p1031
sbsI120
(iasset
Asset
p1032
(dp1033
g3
I263
sg4
(dp1034
g6
I3
sg7
F0.08
sg8
I2
ssg9
VModern
p1035
sg11
g225
sg13
VThe Arts Capsule
p1036
sg15
g494
sg17
VLiving Room
p1037
sg19
g496
sg21
V5bae00c66ba8514ed50c5b5b
p1038
sg23
VWest Elm
p1039
sbsI121
(iasset
Asset
p1040
(dp1041
g3
I139
sg4
(dp1042
g6
F2.16
sg7
F0.41
sg8
F3.08
ssg9
VModern
p1043
sg11
g225
sg13
VPapier-Mache Wall Art - Geo Panel
p1044
sg15
g494
sg17
VLiving Room
p1045
sg19
g496
sg21
V5baccaeff120bf1cd05158f0
p1046
sg23
VWest Elm
p1047
sbsI122
(iasset
Asset
p1048
(dp1049
g3
I139
sg4
(dp1050
g6
F2.16
sg7
F0.41
sg8
F3.08
ssg9
VModern
p1051
sg11
g225
sg13
VPapier-Mache Wall Art Panel 2
p1052
sg15
g494
sg17
VLiving Room
p1053
sg19
g496
sg21
V5bacc9e7f120bf1cd05158ef
p1054
sg23
VWest Elm
p1055
sbsI123
(iasset
Asset
p1056
(dp1057
g3
I139
sg4
(dp1058
g6
F2.16
sg7
F0.41
sg8
F3.08
ssg9
VCONTEMPORARY
p1059
sg11
g225
sg13
VPapier-Mache Wall Art
p1060
sg15
g494
sg17
VLiving Room
p1061
sg19
g496
sg21
V5bacc86af120bf1cd05158ee
p1062
sg23
VWest Elm
p1063
sbsI124
(iasset
Asset
p1064
(dp1065
g3
I29
sg4
(dp1066
g6
F1.66
sg7
F0.33
sg8
F1.66
ssg9
VTRANSITIONAL
p1067
sg11
g236
sg13
VPressed Velvet Pillow Covers
p1068
sg15
g238
sg17
VMaster Bedroom
p1069
sg19
g679
sg21
V5bacc5cbf120bf1cd05158ed
p1070
sg23
VWest Elm
p1071
sbsI125
(iasset
Asset
p1072
(dp1073
g3
I29
sg4
(dp1074
g6
F1.66
sg7
F0.33
sg8
F1.66
ssg9
VTRANSITIONAL
p1075
sg11
g236
sg13
VPressed Velvet Covers
p1076
sg15
g238
sg17
VLiving Room
p1077
sg19
g679
sg21
V5bacc466f120bf1cd05158ec
p1078
sg23
VWest Elm
p1079
sbsI126
(iasset
Asset
p1080
(dp1081
g3
I30
sg4
(dp1082
g6
F1.66
sg7
F0.33
sg8
F1.66
ssg9
VModern
p1083
sg11
g236
sg13
VIkat Pillow Covers
p1084
sg15
g238
sg17
VLiving Room
p1085
sg19
VCushion Covers
p1086
sg21
V5bacc320f120bf1cd05158eb
p1087
sg23
VWest Elm
p1088
sbsI127
(iasset
Asset
p1089
(dp1090
g3
I155
sg4
(dp1091
g6
F1.75
sg7
F0.33
sg8
I1
ssg9
VModern
p1092
sg11
g236
sg13
VLouise Gray Pillow
p1093
sg15
g238
sg17
VLiving Room
p1094
sg19
g505
sg21
V5bacbff4f120bf1cd05158ea
p1095
sg23
VWest Elm
p1096
sbsI128
(iasset
Asset
p1097
(dp1098
g3
I999
sg4
(dp1099
g6
I8
sg7
I10
sg8
F0.0625
ssg9
VART DECO
p1100
sg11
g236
sg13
VExpressionist Special Order Rug
p1101
sg15
g403
sg17
VLiving Room
p1102
sg19
g662
sg21
V5bacbf16f120bf1cd05158e5
p1103
sg23
VWest Elm
p1104
sbsI129
(iasset
Asset
p1105
(dp1106
g3
I44
sg4
(dp1107
g6
F1.75
sg7
I0
sg8
I1
ssg9
VIndian Contemporary
p1108
sg11
g236
sg13
VDeco Tile Pillow Covers
p1109
sg15
g238
sg17
VMaster Bedroom
p1110
sg19
g679
sg21
V5bacbe9ff120bf1cd05158e0
p1111
sg23
VWest Elm
p1112
sbsI130
(iasset
Asset
p1113
(dp1114
g3
I1399
sg4
(dp1115
g6
I8
sg7
I10
sg8
F0.0625
ssg9
VART DECO
p1116
sg11
g236
sg13
VAbstract Lines Wool Rug
p1117
sg15
g403
sg17
VGuest Room
p1118
sg19
g662
sg21
V5bacbde3f120bf1cd05158dc
p1119
sg23
VWest Elm
p1120
sbsI131
(iasset
Asset
p1121
(dp1122
g3
I699
sg4
(dp1123
g6
I8
sg7
I10
sg8
F0.0625
ssg9
VBohemian
p1124
sg11
g236
sg13
VJanus Ikat Rug
p1125
sg15
g403
sg17
VLiving Room
p1126
sg19
g662
sg21
V5bacbd4df120bf1cd05158db
p1127
sg23
VWest Elm
p1128
sbsI132
(iasset
Asset
p1129
(dp1130
g3
I39
sg4
(dp1131
g6
F1.5
sg7
F0.33
sg8
F1.5
ssg9
VModern
p1132
sg11
g236
sg13
VOasis Brocade Pillow Cover
p1133
sg15
g238
sg17
VMaster Bedroom
p1134
sg19
g679
sg21
V5bacbd2df120bf1cd05158da
p1135
sg23
VWest Elm
p1136
sbsI133
(iasset
Asset
p1137
(dp1138
g3
I899
sg4
(dp1139
g6
I8
sg7
I10
sg8
F0.0625
ssg9
VScandinavian
p1140
sg11
g236
sg13
VBaby Souk Wool Nursery Rug
p1141
sg15
g403
sg17
VKids Room
p1142
sg19
g662
sg21
V5bacbbf1f120bf1cd05158d9
p1143
sg23
VWest Elm
p1144
sbsI134
(iasset
Asset
p1145
(dp1146
g3
I699
sg4
(dp1147
g6
I8
sg7
I10
sg8
F0.0625
ssg9
VModern
p1148
sg11
g236
sg13
VLore Rug
p1149
sg15
g403
sg17
VLiving Room
p1150
sg19
g662
sg21
V5bacbb44f120bf1cd05158d8
p1151
sg23
VWest Elm
p1152
sbsI135
(iasset
Asset
p1153
(dp1154
g3
I39
sg4
(dp1155
g6
F1.5
sg7
F0.33
sg8
F1.5
ssg9
VTRANSITIONAL
p1156
sg11
g236
sg13
VPinwheel Pillow Cover
p1157
sg15
g238
sg17
VGuest Room
p1158
sg19
g679
sg21
V5bacbabdf120bf1cd05158d7
p1159
sg23
VWest Elm
p1160
sbsI136
(iasset
Asset
p1161
(dp1162
g3
I799
sg4
(dp1163
g6
I8
sg7
I10
sg8
F0.0625
ssg9
VScandinavian
p1164
sg11
g236
sg13
VAerial Rug
p1165
sg15
g403
sg17
VLiving Room
p1166
sg19
g662
sg21
V5bacba82f120bf1cd05158d6
p1167
sg23
VWest Elm
p1168
sbsI137
(iasset
Asset
p1169
(dp1170
g3
I599
sg4
(dp1171
g6
I8
sg7
I10
sg8
F0.0625
ssg9
VScandinavian
p1172
sg11
g236
sg13
VIkat Mix Indoor Outdoor Rug
p1173
sg15
g403
sg17
VLiving Room
p1174
sg19
g662
sg21
V5bacb9bff120bf1cd05158d5
p1175
sg23
VWest Elm
p1176
sbsI138
(iasset
Asset
p1177
(dp1178
g3
I799
sg4
(dp1179
g6
I8
sg7
I10
sg8
F0.0625
ssg9
VECCENTRIC / ECLECTIC
p1180
sg11
g236
sg13
VDeco Facade Rug
p1181
sg15
g403
sg17
VLiving Room
p1182
sg19
g662
sg21
V5bacb927f120bf1cd05158d4
p1183
sg23
VWest Elm
p1184
sbsI139
(iasset
Asset
p1185
(dp1186
g3
I39
sg4
(dp1187
g6
F1.75
sg7
F0.33
sg8
I1
ssg9
VIndian Contemporary
p1188
sg11
g236
sg13
VEmbellished Brocade
p1189
sg15
g238
sg17
VLiving Room
p1190
sg19
g679
sg21
V5bacb8a4f120bf1cd05158d3
p1191
sg23
VWest Elm
p1192
sbsI140
(iasset
Asset
p1193
(dp1194
g3
I999
sg4
(dp1195
g6
I8
sg7
I10
sg8
F0.0625
ssg9
VModern
p1196
sg11
g236
sg13
VLucent Rug-Blue Teal
p1197
sg15
g403
sg17
VLiving Room
p1198
sg19
g662
sg21
V5bacb877f120bf1cd05158d2
p1199
sg23
VWest Elm
p1200
sbsI141
(iasset
Asset
p1201
(dp1202
g3
I599
sg4
(dp1203
g6
I8
sg7
I10
sg8
F0.0625
ssg9
VScandinavian
p1204
sg11
g236
sg13
VBrushed Palette Rug
p1205
sg15
g403
sg17
VLiving Room
p1206
sg19
g662
sg21
V5bacb7c9f120bf1cd05158d1
p1207
sg23
VWest Elm
p1208
sbsI142
(iasset
Asset
p1209
(dp1210
g3
I699
sg4
(dp1211
g6
I8
sg7
I10
sg8
F0.0625
ssg9
VTRANSITIONAL
p1212
sg11
g236
sg13
VMontane Rug
p1213
sg15
g403
sg17
VLiving Room
p1214
sg19
g662
sg21
V5bacb71df120bf1cd05158d0
p1215
sg23
VWest Elm
p1216
sbsI143
(iasset
Asset
p1217
(dp1218
g3
I49
sg4
(dp1219
g6
F1.33
sg7
F0.33
sg8
F1.33
ssg9
VModern
p1220
sg11
g236
sg13
VBrooch Pillow Cover
p1221
sg15
g238
sg17
VMaster Bedroom
p1222
sg19
g679
sg21
V5bacb6ebf120bf1cd05158cf
p1223
sg23
VWest Elm
p1224
sbsI144
(iasset
Asset
p1225
(dp1226
g3
I999
sg4
(dp1227
g6
I8
sg7
I10
sg8
F0.0625
ssg9
VModern
p1228
sg11
g236
sg13
VLucent Rug-Pink Grapefruit
p1229
sg15
g403
sg17
VLiving Room
p1230
sg19
g662
sg21
V5bacb5f6f120bf1cd05158ce
p1231
sg23
VWest Elm
p1232
sbsI145
(iasset
Asset
p1233
(dp1234
g3
I1199
sg4
(dp1235
g6
I8
sg7
I10
sg8
F0.0625
ssg9
VScandinavian
p1236
sg11
g236
sg13
VFlame Rug
p1237
sg15
g403
sg17
VLiving Room
p1238
sg19
g662
sg21
V5bacb4ccf120bf1cd05158cd
p1239
sg23
VWest Elm
p1240
sbsI146
(iasset
Asset
p1241
(dp1242
g3
I699
sg4
(dp1243
g6
I8
sg7
I10
sg8
F0.0625
ssg9
VCOASTAL CASUAL
p1244
sg11
g236
sg13
VCampo Rug
p1245
sg15
g403
sg17
VLiving Room
p1246
sg19
g662
sg21
V5bacb3d3f120bf1cd05158cc
p1247
sg23
VWest Elm
p1248
sbsI147
(iasset
Asset
p1249
(dp1250
g3
I24
sg4
(dp1251
g6
F2.16
sg7
F0.33
sg8
F1.16
ssg9
VModern
p1252
sg11
g236
sg13
VDistressed Rug Pillow Covers
p1253
sg15
g238
sg17
VMaster Bedroom
p1254
sg19
g679
sg21
V5bacb27af120bf1cd05158cb
p1255
sg23
VWest Elm
p1256
sbsI148
(iasset
Asset
p1257
(dp1258
g3
I399
sg4
(dp1259
g6
I8
sg7
I10
sg8
F0.0625
ssg9
VART DECO
p1260
sg11
g236
sg13
VMixed Stripes Cotton Dhurrie-Multi
p1261
sg15
g403
sg17
VLiving Room
p1262
sg19
g662
sg21
V5bacb279f120bf1cd05158ca
p1263
sg23
VWest Elm
p1264
sbsI149
(iasset
Asset
p1265
(dp1266
g3
I899
sg4
(dp1267
g6
I8
sg7
I10
sg8
F0.0625
ssg9
VScandinavian
p1268
sg11
g236
sg13
VRoyal Grid Shag Rug-Platinum
p1269
sg15
g403
sg17
VLiving Room
p1270
sg19
g662
sg21
V5bacb15df120bf1cd05158c9
p1271
sg23
VWest Elm
p1272
sbsI150
(iasset
Asset
p1273
(dp1274
g3
I39
sg4
(dp1275
g6
I1
sg7
F0.33
sg8
F1.75
ssg9
VModern
p1276
sg11
g236
sg13
VWater Garden Pillow Cover
p1277
sg15
g238
sg17
VLiving Room
p1278
sg19
g679
sg21
V5bacb063f120bf1cd05158c8
p1279
sg23
VWest Elm
p1280
sbsI151
(iasset
Asset
p1281
(dp1282
g3
I799
sg4
(dp1283
g6
I8
sg7
I10
sg8
F0.0625
ssg9
VScandinavian
p1284
sg11
g236
sg13
VStone Tile Rug
p1285
sg15
g403
sg17
VLiving Room
p1286
sg19
g662
sg21
V5bacb03ff120bf1cd05158c7
p1287
sg23
VWest Elm
p1288
sbsI152
(iasset
Asset
p1289
(dp1290
g3
I599
sg4
(dp1291
g6
I8
sg7
I10
sg8
F0.0625
ssg9
VModern
p1292
sg11
g236
sg13
VDistressed Foliage Rug-Pewter
p1293
sg15
g403
sg17
VLiving Room
p1294
sg19
g662
sg21
V5bacade8f120bf1cd05158c6
p1295
sg23
VWest Elm
p1296
sbsI153
(iasset
Asset
p1297
(dp1298
g3
I1199
sg4
(dp1299
g6
I8
sg7
I10
sg8
F0.0625
ssg9
VCOASTAL CASUAL
p1300
sg11
g236
sg13
VDistressed Arabesque Wool Rug-Midnight
p1301
sg15
g403
sg17
VLiving Room
p1302
sg19
g662
sg21
V5bacac9df120bf1cd05158c5
p1303
sg23
VWest Elm
p1304
sbsI154
(iasset
Asset
p1305
(dp1306
g3
I499
sg4
(dp1307
g6
F3.16
sg7
F3.16
sg8
I3
ssg9
VCONTEMPORARY
p1308
sg11
g57
sg13
VLight Rods LED Chandelier
p1309
sg15
g59
sg17
VLiving Room
p1310
sg19
g61
sg21
V5bacabcaf120bf1cd05158c4
p1311
sg23
VWest Elm
p1312
sbsI155
(iasset
Asset
p1313
(dp1314
g3
I599
sg4
(dp1315
g6
I8
sg7
I10
sg8
F0.0625
ssg9
VCOASTAL CASUAL
p1316
sg11
g236
sg13
VSummit Indoor/Outdoor Rug
p1317
sg15
g403
sg17
VLiving Room
p1318
sg19
g662
sg21
V5baca96ff120bf1cd05158c3
p1319
sg23
VWest Elm
p1320
sbsI156
(iasset
Asset
p1321
(dp1322
g3
I139
sg4
(dp1323
g6
F1.16
sg7
F1.16
sg8
I2
ssg9
VTRANSITIONAL
p1324
sg11
g57
sg13
VSphere + Stem Pendant
p1325
sg15
g59
sg17
VMaster Bedroom
p1326
sg19
g779
sg21
V5baca8a5f120bf1cd05158c2
p1327
sg23
VWest Elm
p1328
sbsI157
(iasset
Asset
p1329
(dp1330
g3
I139
sg4
(dp1331
g6
F1.16
sg7
F1.16
sg8
I2
ssg9
VTRANSITIONAL
p1332
sg11
g57
sg13
VSphere + Stem Pendant
p1333
sg15
g59
sg17
VMaster Bedroom
p1334
sg19
g779
sg21
V5baca8a4f120bf1cd05158c1
p1335
sg23
VWest Elm
p1336
sbsI158
(iasset
Asset
p1337
(dp1338
g3
I209
sg4
(dp1339
g6
I0
sg7
F1.22
sg8
F5.16
ssg9
VCONTEMPORARY
p1340
sg11
g57
sg13
VSphere + Stem Floor Lamp
p1341
sg15
g86
sg17
VLiving Room
p1342
sg19
g88
sg21
V5baca558f120bf1cd05158c0
p1343
sg23
VWest Elm
p1344
sbsI159
(iasset
Asset
p1345
(dp1346
g3
I599
sg4
(dp1347
g6
I8
sg7
I10
sg8
F0.0625
ssg9
VCOASTAL CASUAL
p1348
sg11
g236
sg13
VVerve Rug-Midnight
p1349
sg15
g403
sg17
VLiving Room
p1350
sg19
g662
sg21
V5baca54df120bf1cd05158bf
p1351
sg23
VWest Elm
p1352
sbsI160
(iasset
Asset
p1353
(dp1354
g3
I599
sg4
(dp1355
g6
I8
sg7
I10
sg8
F0.0625
ssg9
VCOASTAL CASUAL
p1356
sg11
g236
sg13
VSun-Kissed Landscape Rug-Light Pool
p1357
sg15
g403
sg17
VLiving Room
p1358
sg19
g662
sg21
V5baca279f120bf1cd05158be
p1359
sg23
VWest Elm
p1360
sbsI161
(iasset
Asset
p1361
(dp1362
g3
I799
sg4
(dp1363
g6
F2.58
sg7
F2.58
sg8
I3
ssg9
VTRANSITIONAL
p1364
sg11
g57
sg13
VPelle Chandelier
p1365
sg15
g59
sg17
VLiving Room
p1366
sg19
g61
sg21
V5baca16ef120bf1cd05158bd
p1367
sg23
VWest Elm
p1368
sbsI162
(iasset
Asset
p1369
(dp1370
g3
I999
sg4
(dp1371
g6
I8
sg7
I10
sg8
F0.0625
ssg9
VTRANSITIONAL
p1372
sg11
g236
sg13
VSunset Lake Rug
p1373
sg15
g403
sg17
VLiving Room
p1374
sg19
g662
sg21
V5baca11ff120bf1cd05158bc
p1375
sg23
VWest Elm
p1376
sbsI163
(iasset
Asset
p1377
(dp1378
g3
I999
sg4
(dp1379
g6
I8
sg7
I10
sg8
F0.0625
ssg9
VScandinavian
p1380
sg11
g236
sg13
VRani Rug-Midnight Navy
p1381
sg15
g403
sg17
VLiving Room
p1382
sg19
g662
sg21
V5bac9f75f120bf1cd05158bb
p1383
sg23
VWest Elm
p1384
sbsI164
(iasset
Asset
p1385
(dp1386
g3
I349
sg4
(dp1387
g6
I6
sg7
I6
sg8
F0.0625
ssg9
VCONTEMPORARY
p1388
sg11
g236
sg13
VWatermark Rug - Round
p1389
sg15
g403
sg17
VLiving Room
p1390
sg19
g662
sg21
V5bac9c7ff120bf1cd05158ba
p1391
sg23
VWest Elm
p1392
sbsI165
(iasset
Asset
p1393
(dp1394
g3
I599
sg4
(dp1395
g6
F3.18
sg7
F3.18
sg8
F3.33
ssg9
VCONTEMPORARY
p1396
sg11
g57
sg13
VChampignon Chandelier
p1397
sg15
g59
sg17
VLiving Room
p1398
sg19
g61
sg21
V5bac9b24f120bf1cd05158b9
p1399
sg23
VWest Elm
p1400
sbsI166
(iasset
Asset
p1401
(dp1402
g3
I419
sg4
(dp1403
g6
I3
sg7
I3
sg8
F1.45
ssg9
VModern
p1404
sg11
g57
sg13
VSphere + Stem Chandelier
p1405
sg15
g59
sg17
VLiving Room
p1406
sg19
g61
sg21
V5bac9aa0f120bf1cd05158b8
p1407
sg23
VWest Elm
p1408
sbsI167
(iasset
Asset
p1409
(dp1410
g3
I349
sg4
(dp1411
g6
I6
sg7
I6
sg8
F0.0625
ssg9
VModern
p1412
sg11
g236
sg13
VDistressed Rococo Wool Rug - Round
p1413
sg15
g403
sg17
VLiving Room
p1414
sg19
g662
sg21
V5bac994ef120bf1cd05158b7
p1415
sg23
VWest Elm
p1416
sbsI168
(iasset
Asset
p1417
(dp1418
g3
F149.99
sg4
(dp1419
g6
F1.75
sg7
F2.25
sg8
F3.41
ssg9
VHollywood Regency
p1420
sg11
g12
sg13
VChicago Parsons Chair- Dark Gray Fabric
p1421
sg15
g121
sg17
VMaster Bedroom
p1422
sg19
g123
sg21
V5baa1c46f120bf1cd0515891
p1423
sg23
VWayfair
p1424
sbsI169
(iasset
Asset
p1425
(dp1426
g3
F299.99
sg4
(dp1427
g6
F1.75
sg7
F2.25
sg8
F3.41
ssg9
VTRANSITIONAL
p1428
sg11
g12
sg13
VChicago Parsons Chair
p1429
sg15
g121
sg17
VLiving Room
p1430
sg19
g123
sg21
V5baa1b4ff120bf1cd051588f
p1431
sg23
VWayfair
p1432
sbsI170
(iasset
Asset
p1433
(dp1434
g3
F193.99
sg4
(dp1435
g6
F1.91
sg7
F2.33
sg8
F2.91
ssg9
VCOASTAL CASUAL
p1436
sg11
g12
sg13
VTeal Geometric-Trellis Swoop Slipper Chair
p1437
sg15
g121
sg17
VLiving Room
p1438
sg19
g123
sg21
V5baa1313f120bf1cd051588e
p1439
sg23
VWayfair
p1440
sbsI171
(iasset
Asset
p1441
(dp1442
g3
F193.99
sg4
(dp1443
g6
F2.91
sg7
F2.33
sg8
F2.83
ssg9
VECCENTRIC / ECLECTIC
p1444
sg11
g12
sg13
VCoal Gray Ikat-Trellis Swoop Slipper Chair
p1445
sg15
g121
sg17
VLiving Room
p1446
sg19
g123
sg21
V5baa11a0f120bf1cd051588d
p1447
sg23
VWayfair
p1448
sbsI172
(iasset
Asset
p1449
(dp1450
g3
I145
sg4
(dp1451
g6
F0.83
sg7
F0.83
sg8
F5.58
ssg9
VCONTEMPORARY
p1452
sg11
g57
sg13
VHugo Floor Lamp
p1453
sg15
g86
sg17
VLiving Room
p1454
sg19
g88
sg21
V5baa10ecf120bf1cd051588c
p1455
sg23
VWayfair
p1456
sbsI173
(iasset
Asset
p1457
(dp1458
g3
F193.99
sg4
(dp1459
g6
F1.91
sg7
F2.33
sg8
F2.83
ssg9
VECCENTRIC / ECLECTIC
p1460
sg11
g12
sg13
VGreen White Geometric-Trellis Swoop Slipper Chair
p1461
sg15
g121
sg17
VMaster Bedroom
p1462
sg19
g123
sg21
V5baa0fb2f120bf1cd051588b
p1463
sg23
VWayfair
p1464
sbsI174
(iasset
Asset
p1465
(dp1466
g3
I95
sg4
(dp1467
g6
F2.5
sg7
F2.5
sg8
F4.25
ssg9
VIndustrial
p1468
sg11
g57
sg13
VDormont Floor Lamp
p1469
sg15
g86
sg17
VLiving Room
p1470
sg19
g88
sg21
V5baa0f2cf120bf1cd051588a
p1471
sg23
VWayfair
p1472
sbsI175
(iasset
Asset
p1473
(dp1474
g3
F138.99
sg4
(dp1475
g6
F2.08
sg7
F2.31
sg8
F2.75
ssg9
VECCENTRIC / ECLECTIC
p1476
sg11
g12
sg13
VViverette Swoop Armchair
p1477
sg15
g121
sg17
VLiving Room
p1478
sg19
g123
sg21
V5baa0e51f120bf1cd0515889
p1479
sg23
VWayfair
p1480
sbsI176
(iasset
Asset
p1481
(dp1482
g3
F157.99
sg4
(dp1483
g6
F2.08
sg7
F2.31
sg8
F2.77
ssg9
VSHABBY-CHIC
p1484
sg11
g12
sg13
VCrainville Swoop Armchair
p1485
sg15
g121
sg17
VLiving Room
p1486
sg19
g123
sg21
V5baa0d4df120bf1cd0515888
p1487
sg23
VWayfair
p1488
sbsI177
(iasset
Asset
p1489
(dp1490
g3
I69
sg4
(dp1491
g6
F1.16
sg7
F1.16
sg8
F4.91
ssg9
VIndian Contemporary
p1492
sg11
g57
sg13
VBridgers Floor Lmap
p1493
sg15
g86
sg17
VLiving Room
p1494
sg19
g88
sg21
V5baa0b22f120bf1cd0515887
p1495
sg23
VWayfair
p1496
sbsI178
(iasset
Asset
p1497
(dp1498
g3
F141.99
sg4
(dp1499
g6
F2.08
sg7
F2.31
sg8
F2.77
ssg9
VHollywood Regency
p1500
sg11
g12
sg13
VLuxton Swoop Armchair
p1501
sg15
g121
sg17
VMaster Bedroom
p1502
sg19
g123
sg21
V5baa0299f120bf1cd0515886
p1503
sg23
VWayfair
p1504
sbsI179
(iasset
Asset
p1505
(dp1506
g3
F187.99
sg4
(dp1507
g6
F1.8
sg7
F2.49
sg8
F2.71
ssg9
VCOASTAL CASUAL
p1508
sg11
g12
sg13
VReedsport Slipper Chair
p1509
sg15
g121
sg17
VLiving Room
p1510
sg19
g123
sg21
V5ba9fd03f120bf1cd0515885
p1511
sg23
VWayfair
p1512
sbsI180
(iasset
Asset
p1513
(dp1514
g3
I303
sg4
(dp1515
g6
I2
sg7
F1.5
sg8
F4.41
ssg9
VMid Century
p1516
sg11
g12
sg13
VCastagnier Chest
p1517
sg15
g48
sg17
VLiving Room
p1518
sg19
g50
sg21
V5ba9f918f120bf1cd0515884
p1519
sg23
VWayfair
p1520
sbsI181
(iasset
Asset
p1521
(dp1522
g3
I450
sg4
(dp1523
g6
F3.5
sg7
F1.5
sg8
F3.16
ssg9
VCONTEMPORARY
p1524
sg11
g12
sg13
VLisle Drawer Chest
p1525
sg15
g48
sg17
VLiving Room
p1526
sg19
g50
sg21
V5ba9f4b3f120bf1cd0515883
p1527
sg23
VWayfair
p1528
sbsI182
(iasset
Asset
p1529
(dp1530
g3
F132.99
sg4
(dp1531
g6
F1.6
sg7
F1.08
sg8
F2.23
ssg9
VHollywood Regency
p1532
sg11
g12
sg13
VPhilipston 2 Drawer Nightstand-Hot Red
p1533
sg15
g30
sg17
VKids Room
p1534
sg19
g32
sg21
V5ba9f3fdf120bf1cd0515882
p1535
sg23
VWayfair
p1536
sbsI183
(iasset
Asset
p1537
(dp1538
g3
F132.99
sg4
(dp1539
g6
F1.6
sg7
F1.08
sg8
F2.23
ssg9
VCOASTAL CASUAL
p1540
sg11
g12
sg13
VPhilipston 2 Drawer Nightstand-French Gray
p1541
sg15
g30
sg17
VMaster Bedroom
p1542
sg19
g32
sg21
V5ba9f306f120bf1cd0515881
p1543
sg23
VWayfair
p1544
sbsI184
(iasset
Asset
p1545
(dp1546
g3
F132.99
sg4
(dp1547
g6
F1.6
sg7
F1.08
sg8
F2.23
ssg9
VCOASTAL CASUAL
p1548
sg11
g12
sg13
VPhilipston 2 Drawer Nightstand-Barn Blue
p1549
sg15
g30
sg17
VMaster Bedroom
p1550
sg19
g32
sg21
V5ba9f242f120bf1cd0515880
p1551
sg23
VWayfair
p1552
sbsI185
(iasset
Asset
p1553
(dp1554
g3
I450
sg4
(dp1555
g6
F3.5
sg7
F1.5
sg8
F3.16
ssg9
VTRANSITIONAL
p1556
sg11
g12
sg13
VLisle Media Chest
p1557
sg15
g48
sg17
VLiving Room
p1558
sg19
g50
sg21
V5ba9f1c8f120bf1cd051587f
p1559
sg23
VWayfair
p1560
sbsI186
(iasset
Asset
p1561
(dp1562
g3
F132.99
sg4
(dp1563
g6
F1.6
sg7
F1.08
sg8
F2.23
ssg9
VScandinavian
p1564
sg11
g12
sg13
VPhilipston 2 Drawer Nightstand-Barley
p1565
sg15
g30
sg17
VMaster Bedroom
p1566
sg19
g32
sg21
V5ba9f142f120bf1cd051587e
p1567
sg23
VWayfair
p1568
sbsI187
(iasset
Asset
p1569
(dp1570
g3
I640
sg4
(dp1571
g6
I4
sg7
F1.43
sg8
F3.33
ssg9
VCONTEMPORARY
p1572
sg11
g12
sg13
VDella Double Dresser
p1573
sg15
g48
sg17
VMaster Bedroom
p1574
sg19
g50
sg21
V5ba9f000f120bf1cd051587d
p1575
sg23
VWayfair
p1576
sbsI188
(iasset
Asset
p1577
(dp1578
g3
F132.99
sg4
(dp1579
g6
F1.5
sg7
F1.08
sg8
F2.23
ssg9
VScandinavian
p1580
sg11
g12
sg13
VPhilipston 2 Drawer Nightstand-Antique White
p1581
sg15
g30
sg17
VGuest Room
p1582
sg19
g32
sg21
V5ba9efd7f120bf1cd051587c
p1583
sg23
VWayfair
p1584
sbsI189
(iasset
Asset
p1585
(dp1586
g3
F369.99
sg4
(dp1587
g6
F2.61
sg7
F1.667
sg8
F2.5
ssg9
VModern
p1588
sg11
g12
sg13
VDobson Nightstand-Fog
p1589
sg15
g30
sg17
VMaster Bedroom
p1590
sg19
g32
sg21
V5ba9ee87f120bf1cd051587b
p1591
sg23
VWayfair
p1592
sbsI190
(iasset
Asset
p1593
(dp1594
g3
I640
sg4
(dp1595
g6
I4
sg7
F1.18
sg8
F3.33
ssg9
VCONTEMPORARY
p1596
sg11
g12
sg13
VDella Dresser
p1597
sg15
g48
sg17
VMaster Bedroom
p1598
sg19
g50
sg21
V5ba9edeef120bf1cd051587a
p1599
sg23
VWayfair
p1600
sbsI191
(iasset
Asset
p1601
(dp1602
g3
F369.99
sg4
(dp1603
g6
F2.61
sg7
F1.667
sg8
F2.5
ssg9
VCOASTAL CASUAL
p1604
sg11
g12
sg13
VDobson Nightstand
p1605
sg15
g30
sg17
VMaster Bedroom
p1606
sg19
g32
sg21
V5ba9edbdf120bf1cd0515879
p1607
sg23
VWayfair
p1608
sbsI192
(iasset
Asset
p1609
(dp1610
g3
F409.99
sg4
(dp1611
g6
F2.41
sg7
F1.41
sg8
F2.46
ssg9
VTraditional
p1612
sg11
g12
sg13
VRosehill 3 Drawer Bachelor's Nightstand-Black
p1613
sg15
g30
sg17
VMaster Bedroom
p1614
sg19
g32
sg21
V5ba9ec58f120bf1cd0515878
p1615
sg23
VWayfair
p1616
sbsI193
(iasset
Asset
p1617
(dp1618
g3
I670
sg4
(dp1619
g6
F2.91
sg7
F1.66
sg8
F4.02
ssg9
VTRANSITIONAL
p1620
sg11
g12
sg13
VEnrico Chest
p1621
sg15
g48
sg17
VMaster Bedroom
p1622
sg19
g50
sg21
V5ba9ec3af120bf1cd0515877
p1623
sg23
VWayfair
p1624
sbsI194
(iasset
Asset
p1625
(dp1626
g3
F345.99
sg4
(dp1627
g6
F2.41
sg7
F1.41
sg8
F2.46
ssg9
VTraditional
p1628
sg11
g12
sg13
VRosehill 3 Drawer Bachelor's Nightstand
p1629
sg15
g30
sg17
VMaster Bedroom
p1630
sg19
g32
sg21
V5ba9eb11f120bf1cd0515876
p1631
sg23
VWayfair
p1632
sbsI195
(iasset
Asset
p1633
(dp1634
g3
I538
sg4
(dp1635
g6
F4.25
sg7
F1.66
sg8
I3
ssg9
VTRANSITIONAL
p1636
sg11
g12
sg13
VDobson Drawer Dresser
p1637
sg15
g48
sg17
VLiving Room
p1638
sg19
g50
sg21
V5ba9eafcf120bf1cd0515875
p1639
sg23
VWayfair
p1640
sbsI196
(iasset
Asset
p1641
(dp1642
g3
F309.99
sg4
(dp1643
g6
F2.41
sg7
F1.33
sg8
F3.54
ssg9
VTraditional
p1644
sg11
g12
sg13
VEllis 3 Drawer Bachelor's Chest-Cappuccino
p1645
sg15
g30
sg17
VGuest Room
p1646
sg19
g32
sg21
V5ba9e1b4f120bf1cd0515874
p1647
sg23
VWayfair
p1648
sbsI197
(iasset
Asset
p1649
(dp1650
g3
I629
sg4
(dp1651
g6
F5.5
sg7
F1.5
sg8
F3.41
ssg9
VIndustrial
p1652
sg11
g12
sg13
VHilton Double Dresser
p1653
sg15
g48
sg17
VMaster Bedroom
p1654
sg19
g50
sg21
V5ba9e0fcf120bf1cd0515873
p1655
sg23
VWayfair
p1656
sbsI198
(iasset
Asset
p1657
(dp1658
g3
F337.99
sg4
(dp1659
g6
F2.41
sg7
F1.375
sg8
F2.54
ssg9
VModern
p1660
sg11
g12
sg13
VEllis 3 Drawer Bachelor's Chest
p1661
sg15
g30
sg17
VMaster Bedroom
p1662
sg19
g32
sg21
V5ba9e0dcf120bf1cd0515872
p1663
sg23
VWayfair
p1664
sbsI199
(iasset
Asset
p1665
(dp1666
g3
F160.99
sg4
(dp1667
g6
I2
sg7
F1.33
sg8
I2
ssg9
VTRANSITIONAL
p1668
sg11
g12
sg13
VJuno 2 Drawer Nightstand
p1669
sg15
g30
sg17
VGuest Room
p1670
sg19
g32
sg21
V5ba9df68f120bf1cd0515871
p1671
sg23
VWayfair
p1672
sbsI200
(iasset
Asset
p1673
(dp1674
g3
I739
sg4
(dp1675
g6
F5.1
sg7
F1.54
sg8
F3.35
ssg9
VScandinavian
p1676
sg11
g12
sg13
VHorton Drawer
p1677
sg15
g48
sg17
VMaster Bedroom
p1678
sg19
g50
sg21
V5ba9de9df120bf1cd0515870
p1679
sg23
VWayfair
p1680
sbsI201
(iasset
Asset
p1681
(dp1682
g3
F299.99
sg4
(dp1683
g6
F2.58
sg7
F1.33
sg8
F2.5
ssg9
VCOASTAL CASUAL
p1684
sg11
g12
sg13
VKennison 3 Drawer Nightstand-Antique Gray
p1685
sg15
g30
sg17
VMaster Bedroom
p1686
sg19
g32
sg21
V5ba9dd74f120bf1cd051586f
p1687
sg23
VWayfair
p1688
sbsI202
(iasset
Asset
p1689
(dp1690
g3
F302.99
sg4
(dp1691
g6
F2.58
sg7
F1.33
sg8
F2.5
ssg9
VTraditional
p1692
sg11
g12
sg13
VKennison 3 Drawer Nightstand-Tobacco
p1693
sg15
g30
sg17
VGuest Room
p1694
sg19
g32
sg21
V5ba9dc62f120bf1cd051586e
p1695
sg23
VWayfair
p1696
sbsI203
(iasset
Asset
p1697
(dp1698
g3
I650
sg4
(dp1699
g6
F4.5
sg7
F1.5
sg8
F3.33
ssg9
VIndian Contemporary
p1700
sg11
g12
sg13
VTroxell Dresser
p1701
sg15
g48
sg17
VMaster Bedroom
p1702
sg19
g50
sg21
V5ba9db62f120bf1cd051586d
p1703
sg23
VWayfair
p1704
sbsI204
(iasset
Asset
p1705
(dp1706
g3
F369.99
sg4
(dp1707
g6
F2.5
sg7
F1.41
sg8
F2.5
ssg9
VTraditional
p1708
sg11
g12
sg13
VBlenheim 2 Drawer Nightstand
p1709
sg15
g30
sg17
VMaster Bedroom
p1710
sg19
g32
sg21
V5ba9db2ef120bf1cd051586c
p1711
sg23
VWayfair
p1712
sbsI205
(iasset
Asset
p1713
(dp1714
g3
F187.99
sg4
(dp1715
g6
F2.21
sg7
F1.62
sg8
F2.14
ssg9
VTRANSITIONAL
p1716
sg11
g12
sg13
VPinellas 1 Drawer Nightstand-Curado Cherry
p1717
sg15
g30
sg17
VMaster Bedroom
p1718
sg19
g32
sg21
V5ba9d926f120bf1cd051586b
p1719
sg23
VWayfair
p1720
sbsI206
(iasset
Asset
p1721
(dp1722
g3
F166.99
sg4
(dp1723
g6
F2.21
sg7
F1.62
sg8
F2.14
ssg9
VScandinavian
p1724
sg11
g12
sg13
VPinellas 1 Drawer Nightstand-Antiqued White
p1725
sg15
g30
sg17
VMaster Bedroom
p1726
sg19
g32
sg21
V5ba9d83bf120bf1cd051586a
p1727
sg23
VWayfair
p1728
sbsI207
(iasset
Asset
p1729
(dp1730
g3
F166.99
sg4
(dp1731
g6
F2.21
sg7
F1.62
sg8
F2.14
ssg9
VMid Century
p1732
sg11
g12
sg13
VPinellas 1 Drawer Nightstand-Antiqued Black
p1733
sg15
g30
sg17
VMaster Bedroom
p1734
sg19
g78
sg21
V5ba9d743f120bf1cd0515869
p1735
sg23
VWayfair
p1736
sbsI208
(iasset
Asset
p1737
(dp1738
g3
I730
sg4
(dp1739
g6
F4.83
sg7
F0.08
sg8
F2.83
ssg9
VIndian Contemporary
p1740
sg11
g12
sg13
VCoalcliff Drawer Chest
p1741
sg15
g48
sg17
VMaster Bedroom
p1742
sg19
g50
sg21
V5ba9d45df120bf1cd0515868
p1743
sg23
VWayfair
p1744
sbsI209
(iasset
Asset
p1745
(dp1746
g3
F166.99
sg4
(dp1747
g6
F2.21
sg7
F1.62
sg8
F2.14
ssg9
VScandinavian
p1748
sg11
g12
sg13
VPinellas 1 Drawer Nightstand-Salt Oak
p1749
sg15
g30
sg17
VMaster Bedroom
p1750
sg19
g32
sg21
V5ba9d436f120bf1cd0515867
p1751
sg23
VWayfair
p1752
sbsI210
(iasset
Asset
p1753
(dp1754
g3
F118.99
sg4
(dp1755
g6
F1.33
sg7
F1.33
sg8
F2.41
ssg9
VTRANSITIONAL
p1756
sg11
g12
sg13
VYvelines 1 Drawer Nightstand
p1757
sg15
g30
sg17
VMaster Bedroom
p1758
sg19
g32
sg21
V5ba9d24ef120bf1cd0515866
p1759
sg23
VWayfair
p1760
sbsI211
(iasset
Asset
p1761
(dp1762
g3
I849
sg4
(dp1763
g6
F3.5
sg7
F1.58
sg8
F4.5
ssg9
VIndian Contemporary
p1764
sg11
g12
sg13
VBristol Chest
p1765
sg15
g48
sg17
VLiving Room
p1766
sg19
g50
sg21
V5ba9d1f5f120bf1cd0515865
p1767
sg23
VWayfair
p1768
sbsI212
(iasset
Asset
p1769
(dp1770
g3
F346.99
sg4
(dp1771
g6
F2.08
sg7
F1.5
sg8
F2.25
ssg9
VTraditional
p1772
sg11
g12
sg13
VBridgton 2 Drawer Nightstand-Cinnamon
p1773
sg15
g30
sg17
VMaster Bedroom
p1774
sg19
g32
sg21
V5ba9d148f120bf1cd0515864
p1775
sg23
VWayfair
p1776
sbsI213
(iasset
Asset
p1777
(dp1778
g3
F319.99
sg4
(dp1779
g6
F2.08
sg7
F1.5
sg8
F2.25
ssg9
VTraditional
p1780
sg11
g12
sg13
VBridgton 2 Drawer Nightstand-Cinnamon Brown
p1781
sg15
g30
sg17
VMaster Bedroom
p1782
sg19
g32
sg21
V5ba9cfe9f120bf1cd0515863
p1783
sg23
VWayfair
p1784
sbsI214
(iasset
Asset
p1785
(dp1786
g3
I400
sg4
(dp1787
g6
F2.54
sg7
F1.45
sg8
F3.29
ssg9
VIndian Contemporary
p1788
sg11
g12
sg13
VAstra Drawer Chest
p1789
sg15
g48
sg17
VLiving Room
p1790
sg19
g50
sg21
V5ba9cfdcf120bf1cd0515862
p1791
sg23
VWayfair
p1792
sbsI215
(iasset
Asset
p1793
(dp1794
g3
F434.99
sg4
(dp1795
g6
F1.833
sg7
F1.58
sg8
F2.5
ssg9
VMid Century
p1796
sg11
g12
sg13
VPond Brook Nightstand
p1797
sg15
g30
sg17
VMaster Bedroom
p1798
sg19
g32
sg21
V5ba9cea0f120bf1cd0515861
p1799
sg23
VWayfair
p1800
sbsI216
(iasset
Asset
p1801
(dp1802
g3
I189
sg4
(dp1803
g6
F1.81
sg7
F1.56
sg8
F3.7
ssg9
VCONTEMPORARY
p1804
sg11
g12
sg13
VCleveland Bar Stool
p1805
sg15
g121
sg17
VLiving and Dining Room
p1806
sg19
g454
sg21
V5ba8d777f120bf1cd05157e4
p1807
sg23
VWayfair
p1808
sbsI217
(iasset
Asset
p1809
(dp1810
g3
I224
sg4
(dp1811
g6
F1.91
sg7
F1.91
sg8
F3.29
ssg9
VMINIMALIST
p1812
sg11
g12
sg13
VBelvin Bar Stool
p1813
sg15
g121
sg17
VLiving and Dining Room
p1814
sg19
VBar Stools
p1815
sg21
V5ba8d3f7f120bf1cd05157bf
p1816
sg23
VWayfair
p1817
sbsI218
(iasset
Asset
p1818
(dp1819
g3
I126
sg4
(dp1820
g6
F1.47
sg7
F1.76
sg8
F3.18
ssg9
VMINIMALIST
p1821
sg11
g12
sg13
VCeleste Bar Stool
p1822
sg15
g121
sg17
VLiving and Dining Room
p1823
sg19
g1815
sg21
V5ba8d10cf120bf1cd05157be
p1824
sg23
VWayfair
p1825
sbsI219
(iasset
Asset
p1826
(dp1827
g3
F297.99
sg4
(dp1828
g6
I3
sg7
I3
sg8
F1.667
ssg9
VTRANSITIONAL
p1829
sg11
g12
sg13
VStowe Coffee Table
p1830
sg15
g30
sg17
VLiving Room
p1831
sg19
g140
sg21
V5ba8cc6df120bf1cd05157bd
p1832
sg23
VWayfair
p1833
sbsI220
(iasset
Asset
p1834
(dp1835
g3
I124
sg4
(dp1836
g6
F1.33
sg7
F1.33
sg8
I2
ssg9
VTRANSITIONAL
p1837
sg11
g12
sg13
VBlaney Yellow Stool
p1838
sg15
g121
sg17
VLiving and Dining Room
p1839
sg19
g1815
sg21
V5ba8cbe9f120bf1cd05157bc
p1840
sg23
VWayfair
p1841
sbsI221
(iasset
Asset
p1842
(dp1843
g3
I193
sg4
(dp1844
g6
F1.33
sg7
F1.33
sg8
I2
ssg9
VIndustrial
p1845
sg11
g12
sg13
VBlaney Bar Stool
p1846
sg15
g121
sg17
VLiving and Dining Room
p1847
sg19
g1815
sg21
V5ba8c9ecf120bf1cd05157bb
p1848
sg23
VWayfair
p1849
sbsI222
(iasset
Asset
p1850
(dp1851
g3
F186.99
sg4
(dp1852
g6
I4
sg7
I2
sg8
F1.5
ssg9
VModern
p1853
sg11
g12
sg13
VTheodulus Coffee Table
p1854
sg15
g30
sg17
VLiving Room
p1855
sg19
g140
sg21
V5ba8c98ef120bf1cd05157ba
p1856
sg23
VWayfair
p1857
sbsI223
(iasset
Asset
p1858
(dp1859
g3
I224
sg4
(dp1860
g6
F1.66
sg7
F1.52
sg8
F2.58
ssg9
VIndustrial
p1861
sg11
g12
sg13
VBarraute Bar Stool
p1862
sg15
g121
sg17
VLiving and Dining Room
p1863
sg19
g1815
sg21
V5ba8c7d4f120bf1cd05157b9
p1864
sg23
VWayfair
p1865
sbsI224
(iasset
Asset
p1866
(dp1867
g3
I155
sg4
(dp1868
g6
F1.5
sg7
F1.58
sg8
F3.58
ssg9
VIndian Contemporary
p1869
sg11
g12
sg13
VHeartwood 29 Bar Stool
p1870
sg15
g121
sg17
VDining Room
p1871
sg19
g1815
sg21
V5ba8c309f120bf1cd05157b8
p1872
sg23
VWayfair
p1873
sbsI225
(iasset
Asset
p1874
(dp1875
g3
F214.99
sg4
(dp1876
g6
F2.625
sg7
F2.625
sg8
F1.12
ssg9
VModern
p1877
sg11
g12
sg13
VVivienne Coffee Table
p1878
sg15
g30
sg17
VLiving Room
p1879
sg19
g140
sg21
V5ba8c10ff120bf1cd05157b7
p1880
sg23
VWayfair
p1881
sbsI226
(iasset
Asset
p1882
(dp1883
g3
I133
sg4
(dp1884
g6
F1.5
sg7
F1.58
sg8
F3.16
ssg9
VIndian Contemporary
p1885
sg11
g12
sg13
VHeartwood 24 Bar Stool
p1886
sg15
g121
sg17
VDining Room
p1887
sg19
g1815
sg21
V5ba8beb4f120bf1cd0515787
p1888
sg23
VWayfair
p1889
sbsI227
(iasset
Asset
p1890
(dp1891
g3
I135
sg4
(dp1892
g6
F1.5
sg7
F1.32
sg8
F3.19
ssg9
VCONTEMPORARY
p1893
sg11
g12
sg13
VShen Adjustable Bar Stool
p1894
sg15
g121
sg17
VDining Room
p1895
sg19
g1815
sg21
V5ba8b78cf120bf1cd0515759
p1896
sg23
VWayfair
p1897
sbsI228
(iasset
Asset
p1898
(dp1899
g3
I130
sg4
(dp1900
g6
F1.58
sg7
F1.7
sg8
F2.87
ssg9
VCONTEMPORARY
p1901
sg11
g12
sg13
VGrove City Bar Stool
p1902
sg15
g121
sg17
VLiving and Dining Room
p1903
sg19
g1815
sg21
V5ba8afc5f120bf1cd0515758
p1904
sg23
VWayfair
p1905
sbsI229
(iasset
Asset
p1906
(dp1907
g3
I960
sg4
(dp1908
g6
F7.54
sg7
F3.03
sg8
F2.44
ssg9
VHollywood Regency
p1909
sg11
g12
sg13
VKittrell Sofa
p1910
sg15
g325
sg17
VLiving Room
p1911
sg19
g738
sg21
V5ba8ad79f120bf1cd0515757
p1912
sg23
VWayfair
p1913
sbsI230
(iasset
Asset
p1914
(dp1915
g3
I1350
sg4
(dp1916
g6
F4.75
sg7
F3.5
sg8
I3
ssg9
VTRANSITIONAL
p1917
sg11
g12
sg13
VDurango Landry Leather
p1918
sg15
g325
sg17
VLiving Room
p1919
sg19
g327
sg21
V5ba8a963f120bf1cd0515756
p1920
sg23
VWayfair
p1921
sbsI231
(iasset
Asset
p1922
(dp1923
g3
I1347
sg4
(dp1924
g6
F4.75
sg7
F3.5
sg8
I3
ssg9
VTRANSITIONAL
p1925
sg11
g12
sg13
VLandry Leather
p1926
sg15
g325
sg17
VLiving Room
p1927
sg19
g327
sg21
V5ba8a821f120bf1cd0515755
p1928
sg23
VWayfair
p1929
sbsI232
(iasset
Asset
p1930
(dp1931
g3
F474.99
sg4
(dp1932
g6
I3
sg7
I3
sg8
F1.6
ssg9
VTraditional
p1933
sg11
g12
sg13
VWilhoite Double Lift Top Coffee Table
p1934
sg15
g30
sg17
VLiving Room
p1935
sg19
g140
sg21
V5ba8a6d3f120bf1cd0515754
p1936
sg23
VWayfair
p1937
sbsI233
(iasset
Asset
p1938
(dp1939
g3
F315.99
sg4
(dp1940
g6
F2.25
sg7
F2.25
sg8
F1.6
ssg9
VRUSTIC
p1941
sg11
g12
sg13
VVeropeso 27 Reclaimed Coffee Table
p1942
sg15
g30
sg17
VLiving Room
p1943
sg19
g140
sg21
V5ba8a03ef120bf1cd0515753
p1944
sg23
VWayfair
p1945
sbsI234
(iasset
Asset
p1946
(dp1947
g3
I410
sg4
(dp1948
g6
F2.08
sg7
F2.33
sg8
F3.33
ssg9
VTraditional
p1949
sg11
g12
sg13
VRosemary Settee
p1950
sg15
g325
sg17
VLiving Room
p1951
sg19
g327
sg21
V5ba8a02df120bf1cd0515752
p1952
sg23
VWayfair
p1953
sbsI235
(iasset
Asset
p1954
(dp1955
g3
F183.99
sg4
(dp1956
g6
F2.39
sg7
F1.625
sg8
F1.64
ssg9
VModern
p1957
sg11
g12
sg13
VAsine 2 Piece Coffee Table Set
p1958
sg15
g30
sg17
VLiving Room
p1959
sg19
g140
sg21
V5ba89de7f120bf1cd0515751
p1960
sg23
VWayfair
p1961
sbsI236
(iasset
Asset
p1962
(dp1963
g3
I1480
sg4
(dp1964
g6
F7.33
sg7
F3.33
sg8
F3.08
ssg9
VCONTEMPORARY
p1965
sg11
g12
sg13
VChestnut Pratt Sofa
p1966
sg15
g325
sg17
VLiving Room
p1967
sg19
g738
sg21
V5ba89ddff120bf1cd0515750
p1968
sg23
VWayfair
p1969
sbsI237
(iasset
Asset
p1970
(dp1971
g3
I1480
sg4
(dp1972
g6
F7.33
sg7
F3.33
sg8
F3.08
ssg9
VModern
p1973
sg11
g12
sg13
VPratt Leather Sofa
p1974
sg15
g325
sg17
VLiving Room
p1975
sg19
g738
sg21
V5ba89c3bf120bf1cd051574f
p1976
sg23
VWayfair
p1977
sbsI238
(iasset
Asset
p1978
(dp1979
g3
I720
sg4
(dp1980
g6
F6.22
sg7
F2.83
sg8
F2.87
ssg9
VCONTEMPORARY
p1981
sg11
g12
sg13
VRhinebeck Sofa
p1982
sg15
g325
sg17
VLiving Room
p1983
sg19
g738
sg21
V5ba89984f120bf1cd051574e
p1984
sg23
VWayfair
p1985
sbsI239
(iasset
Asset
p1986
(dp1987
g3
F559.99
sg4
(dp1988
g6
I4
sg7
I2
sg8
F1.41
ssg9
VMid Century
p1989
sg11
g12
sg13
VMcpherson Coffee Table
p1990
sg15
g30
sg17
VLiving Room
p1991
sg19
g140
sg21
V5ba89526f120bf1cd051574d
p1992
sg23
VWayfair
p1993
sbsI240
(iasset
Asset
p1994
(dp1995
g3
I372
sg4
(dp1996
g6
F6.23
sg7
F2.85
sg8
F2.65
ssg9
VModern
p1997
sg11
g12
sg13
VSpirit Lake Sleeper
p1998
sg15
g325
sg17
VLiving Room
p1999
sg19
VSofa cum Beds
p2000
sg21
V5ba894d3f120bf1cd051574c
p2001
sg23
VWayfair
p2002
sbsI241
(iasset
Asset
p2003
(dp2004
g3
I740
sg4
(dp2005
g6
F6.62
sg7
F2.79
sg8
F2.62
ssg9
VMINIMALIST
p2006
sg11
g12
sg13
VVera Cruz Sofa
p2007
sg15
g325
sg17
VLiving Room
p2008
sg19
g738
sg21
V5ba88bc7f120bf1cd051574a
p2009
sg23
VWayfair
p2010
sbsI242
(iasset
Asset
p2011
(dp2012
g3
I1450
sg4
(dp2013
g6
F7.33
sg7
F3.08
sg8
F2.83
ssg9
VHollywood Regency
p2014
sg11
g12
sg13
VHawthorn Durango Marine
p2015
sg15
g325
sg17
VLiving Room
p2016
sg19
g738
sg21
V5ba88262f120bf1cd0515749
p2017
sg23
VWayfair
p2018
sbsI243
(iasset
Asset
p2019
(dp2020
g3
I1450
sg4
(dp2021
g6
F7.33
sg7
F3.08
sg8
F2.83
ssg9
VHollywood Regency
p2022
sg11
g12
sg13
VHawthorn Leather Sofa
p2023
sg15
g325
sg17
VLiving Room
p2024
sg19
g738
sg21
V5ba87f6df120bf1cd0515748
p2025
sg23
VWayfair
p2026
sbsI244
(iasset
Asset
p2027
(dp2028
g3
I1025
sg4
(dp2029
g6
F1.08
sg7
F1.08
sg8
F2.667
ssg9
VHollywood Regency
p2030
sg11
g57
sg13
V1920S ODEON CLEAR GLASS FRINGE SQUARE TABLE LAMP
p2031
sg15
g86
sg17
VMaster Bedroom
p2032
sg19
g149
sg21
V5ba4ee76f120bf1cd05151ef
p2033
sg23
VRestoration Hardware
p2034
sbsI245
(iasset
Asset
p2035
(dp2036
g3
I179
sg4
(dp2037
g6
I2
sg7
F0.33
sg8
I2
ssg9
VModern
p2038
sg11
g236
sg13
VOUSHAK SOLID COVER
p2039
sg15
g238
sg17
VLiving Room
p2040
sg19
g679
sg21
V5ba4e72ff120bf1cd05151ec
p2041
sg23
VRestoration Hardware
p2042
sbsI246
(iasset
Asset
p2043
(dp2044
g3
I3695
sg4
(dp2045
g6
F5.75
sg7
F1.667
sg8
F2.91
ssg9
VHollywood Regency
p2046
sg11
g12
sg13
VCELA SHAGREEN 6DRAWER DRESSER
p2047
sg15
g48
sg17
VMaster Bedroom
p2048
sg19
g50
sg21
V5ba4e6aef120bf1cd05151eb
p2049
sg23
VRestoration Hardware
p2050
sbsI247
(iasset
Asset
p2051
(dp2052
g3
I299
sg4
(dp2053
g6
F1.75
sg7
F0.33
sg8
F1.08
ssg9
VTRANSITIONAL
p2054
sg11
g236
sg13
VPILLOW COVER - LUMBAR
p2055
sg15
g238
sg17
VLiving Room
p2056
sg19
g679
sg21
V5ba4e658f120bf1cd05151ea
p2057
sg23
VRestoration Hardware
p2058
sbsI248
(iasset
Asset
p2059
(dp2060
g3
I2996
sg4
(dp2061
g6
F5.58
sg7
F7.16
sg8
I4
ssg9
VHollywood Regency
p2062
sg11
g12
sg13
VCELA SHAGREEN PLATFORM BED
p2063
sg15
g16
sg17
VMaster Bedroom
p2064
sg19
g20
sg21
V5ba4e5c6f120bf1cd05151e9
p2065
sg23
VRestoration Hardware
p2066
sbsI249
(iasset
Asset
p2067
(dp2068
g3
I299
sg4
(dp2069
g6
I2
sg7
F0.33
sg8
I2
ssg9
VTRANSITIONAL
p2070
sg11
g236
sg13
VOUSHAK PILLOW COVER
p2071
sg15
g238
sg17
VLiving Room
p2072
sg19
g679
sg21
V5ba4e57bf120bf1cd05151e8
p2073
sg23
VRestoration Hardware
p2074
sbsI250
(iasset
Asset
p2075
(dp2076
g3
I2195
sg4
(dp2077
g6
I3
sg7
F0.03
sg8
I4
ssg9
VModern
p2078
sg11
g214
sg13
VBELLE EPOQUE
p2079
sg15
g216
sg17
VMaster Bedroom
p2080
sg19
g218
sg21
V5ba4e169f120bf1cd05151e7
p2081
sg23
VRestoration Hardware
p2082
sbsI251
(iasset
Asset
p2083
(dp2084
g3
I2195
sg4
(dp2085
g6
I3
sg7
F0.03
sg8
I4
ssg9
VModern
p2086
sg11
g214
sg13
VBELLE EPOQUE
p2087
sg15
g216
sg17
VMaster Bedroom
p2088
sg19
g218
sg21
V5ba4e168f120bf1cd05151e6
p2089
sg23
VRestoration Hardware
p2090
sbsI252
(iasset
Asset
p2091
(dp2092
g3
I2195
sg4
(dp2093
g6
F3.5
sg7
F0.03
sg8
F3.5
ssg9
VHollywood Regency
p2094
sg11
g214
sg13
VLOMBARD MIRROR
p2095
sg15
g216
sg17
VMaster Bedroom
p2096
sg19
g218
sg21
V5ba4de46f120bf1cd05151e4
p2097
sg23
VRestoration Hardware
p2098
sbsI253
(iasset
Asset
p2099
(dp2100
g3
I4950
sg4
(dp2101
g6
I6
sg7
F8.08
sg8
F4.75
ssg9
VTRANSITIONAL
p2102
sg11
g12
sg13
VCHURCHILL FABRIC BED WITH FOOTBOARD
p2103
sg15
g16
sg17
VMaster Bedroom
p2104
sg19
g20
sg21
V5ba4db85f120bf1cd05151e3
p2105
sg23
VRestoration Hardware
p2106
sbsI254
(iasset
Asset
p2107
(dp2108
g3
I19
sg4
(dp2109
g6
F2.33
sg7
F2.5
sg8
F2.87
ssg9
VCONTEMPORARY
p2110
sg11
g12
sg13
VRowling Chair Navy
p2111
sg15
g121
sg17
VLiving Room
p2112
sg19
g123
sg21
V5ba3a173f120bf1cd0514f15
p2113
sg23
VCasaone
p2114
sbsI255
(iasset
Asset
p2115
(dp2116
g3
I11
sg4
(dp2117
g6
F1.3
sg7
F0.65
sg8
F2.16
ssg9
VCONTEMPORARY
p2118
sg11
g57
sg13
VStep Table Lamp
p2119
sg15
g86
sg17
VMaster Bedroom
p2120
sg19
g149
sg21
V5ba39761c74e4066f9fad368
p2121
sg23
VCasaone
p2122
sbsI256
(iasset
Asset
p2123
(dp2124
g3
I42
sg4
(dp2125
g6
F2.66
sg7
F1.33
sg8
F4.58
ssg9
VIndustrial
p2126
sg11
g12
sg13
VAbbott 5 Drawer Chest
p2127
sg15
g48
sg17
VMaster Bedroom
p2128
sg19
g50
sg21
V5ba38f09c74e4066f9fad367
p2129
sg23
VCasaone
p2130
sbsI257
(iasset
Asset
p2131
(dp2132
g3
I18
sg4
(dp2133
g6
F1.83
sg7
F1.33
sg8
F2.16
ssg9
VIndustrial
p2134
sg11
g12
sg13
VAbbott 2 Drawer Nightstand
p2135
sg15
g30
sg17
VMaster Bedroom
p2136
sg19
g32
sg21
V5ba384c4c74e4066f9fad2ab
p2137
sg23
VCasaone
p2138
sbsI258
(iasset
Asset
p2139
(dp2140
g3
F0.25
sg4
(dp2141
g6
F0.5
sg7
F0.5
sg8
F0.5
ssg9
VECCENTRIC / ECLECTIC
p2142
sg11
g214
sg13
VCement Flower Planter Green And Yellow
p2143
sg15
Vpots & planters
p2144
sg17
VGuest Room
p2145
sg19
Vplanters
p2146
sg21
V5ba36eb971b71b6f57058685
p2147
sg23
VCasaone
p2148
sbsI259
(iasset
Asset
p2149
(dp2150
g3
F3.25
sg4
(dp2151
g6
F1.47
sg7
F0.1
sg8
F1.47
ssg9
VMid Century
p2152
sg11
g236
sg13
VMetallic Pillow Black & Copper
p2153
sg15
g238
sg17
VLiving Room
p2154
sg19
g505
sg21
V5ba36cb071b71b6f5705867c
p2155
sg23
VCasaone
p2156
sbsI260
(iasset
Asset
p2157
(dp2158
g3
I11
sg4
(dp2159
g6
F0.72
sg7
F0.72
sg8
F2.13
ssg9
VCONTEMPORARY
p2160
sg11
g57
sg13
VBelair Table Lamp
p2161
sg15
g86
sg17
VLiving Room
p2162
sg19
g149
sg21
V5ba36c6471b71b6f57058671
p2163
sg23
VCasaone
p2164
sbsI261
(iasset
Asset
p2165
(dp2166
g3
I11
sg4
(dp2167
g6
F1.475
sg7
F0.1
sg8
F1.475
ssg9
VCOASTAL CASUAL
p2168
sg11
g236
sg13
VTurquoise Pillow
p2169
sg15
g238
sg17
VLiving Room
p2170
sg19
g505
sg21
V5ba36bae71b71b6f57058660
p2171
sg23
VCasaone
p2172
sbsI262
(iasset
Asset
p2173
(dp2174
g3
I17
sg4
(dp2175
g6
F0.98
sg7
F0.98
sg8
F5.01
ssg9
VCONTEMPORARY
p2176
sg11
g57
sg13
VBelair Floor Lamp
p2177
sg15
g86
sg17
VLiving Room
p2178
sg19
g88
sg21
V5ba3666071b71b6f5705865f
p2179
sg23
VCasaone
p2180
sbsI263
(iasset
Asset
p2181
(dp2182
g3
I12
sg4
(dp2183
g6
F1.475
sg7
F0.2
sg8
F1.475
ssg9
VCOASTAL CASUAL
p2184
sg11
g236
sg13
VBlue Reef Pillow Blue & White
p2185
sg15
g238
sg17
VLiving Room
p2186
sg19
g505
sg21
V5ba365ca71b71b6f5705865e
p2187
sg23
VCasaone
p2188
sbsI264
(iasset
Asset
p2189
(dp2190
g3
I10
sg4
(dp2191
g6
F0.6
sg7
F0.6
sg8
F1.93
ssg9
VModern
p2192
sg11
g214
sg13
VCobalt Lg Vase Blue
p2193
sg15
VVases
p2194
sg17
VLiving Room
p2195
sg19
VVases
p2196
sg21
V5ba3604f71b71b6f5705865d
p2197
sg23
VCasaone
p2198
sbsI265
(iasset
Asset
p2199
(dp2200
g3
I64
sg4
(dp2201
g6
F5.8
sg7
F2.72
sg8
F2.69
ssg9
VModern
p2202
sg11
g12
sg13
VPuget Sofa
p2203
sg15
g325
sg17
VLiving Room
p2204
sg19
g738
sg21
V5ba35f3c71b71b6f5705865c
p2205
sg23
VCasaone
p2206
sbsI266
(iasset
Asset
p2207
(dp2208
g3
I26
sg4
(dp2209
g6
F6.7
sg7
F9.1
sg8
F0.1
ssg9
VCOASTAL CASUAL
p2210
sg11
g236
sg13
VLessing Rug Natural
p2211
sg15
g403
sg17
VLiving Room
p2212
sg19
g662
sg21
V5ba35db871b71b6f5705865b
p2213
sg23
VCasaone
p2214
sbsI267
(iasset
Asset
p2215
(dp2216
g3
I35
sg4
(dp2217
g6
F6.7
sg7
F9.1
sg8
F0.1
ssg9
VCONTEMPORARY
p2218
sg11
g236
sg13
VVladimir Rug White
p2219
sg15
g403
sg17
VLiving Room
p2220
sg19
g662
sg21
V5ba35d1771b71b6f5705865a
p2221
sg23
VCasaone
p2222
sbsI268
(iasset
Asset
p2223
(dp2224
g3
I22
sg4
(dp2225
g6
F2.58
sg7
F0.1
sg8
F3.9
ssg9
VHollywood Regency
p2226
sg11
g214
sg13
VMini Squares Mirror Antique
p2227
sg15
g216
sg17
VLiving Room
p2228
sg19
g218
sg21
V5ba35b4471b71b6f57058659
p2229
sg23
VCasaone
p2230
sbsI269
(iasset
Asset
p2231
(dp2232
g3
F8.5
sg4
(dp2233
g6
F1.3
sg7
F0.1
sg8
F1.97
ssg9
VRUSTIC
p2234
sg11
g225
sg13
VBlanca Wall Decor Antique-1
p2235
sg15
Vwall accents
p2236
sg17
VLiving Room
p2237
sg19
Vmetal wall art
p2238
sg21
V5ba3567871b71b6f57058658
p2239
sg23
VCasaone
p2240
sbsI270
(iasset
Asset
p2241
(dp2242
g3
F15.05
sg4
(dp2243
g6
F2.625
sg7
F0.1
sg8
F2.625
ssg9
VMid Century
p2244
sg11
g225
sg13
VSpring Wall Decor Antique
p2245
sg15
g2236
sg17
VLiving Room
p2246
sg19
g2238
sg21
V5ba3535571b71b6f57058657
p2247
sg23
VCasaone
p2248
sbsI271
(iasset
Asset
p2249
(dp2250
g3
I35
sg4
(dp2251
g6
I4
sg7
F1.25
sg8
F2.49
ssg9
VCONTEMPORARY
p2252
sg11
g12
sg13
VKure Console Table
p2253
sg15
g30
sg17
VLiving Room
p2254
sg19
g105
sg21
V5ba3488d71b71b6f570585f0
p2255
sg23
VCasaone
p2256
sbsI272
(iasset
Asset
p2257
(dp2258
g3
I12
sg4
(dp2259
g6
F1.7
sg7
I2
sg8
F3.33
ssg9
VIndustrial
p2260
sg11
g12
sg13
VSkyline Dining Chair
p2261
sg15
g307
sg17
VDining Room
p2262
sg19
g336
sg21
V5ba34137e852e80dad11b791
p2263
sg23
VCasaone
p2264
sbsI273
(iasset
Asset
p2265
(dp2266
g3
I59
sg4
(dp2267
g6
F4.52
sg7
F4.52
sg8
F2.55
ssg9
VCONTEMPORARY
p2268
sg11
g12
sg13
VBeaumont Dining Table
p2269
sg15
g307
sg17
VDining Room
p2270
sg19
g379
sg21
V5ba33b84e852e80dad11b790
p2271
sg23
VCasaone
p2272
sbsI274
(iasset
Asset
p2273
(dp2274
g3
I32
sg4
(dp2275
g6
F5.31
sg7
F7.16
sg8
F3.93
ssg9
VCONTEMPORARY
p2276
sg11
g12
sg13
VTaylor Platform Bed
p2277
sg15
g16
sg17
VGuest Room
p2278
sg19
g20
sg21
V5ba3379be852e80dad11b78f
p2279
sg23
VCasaone
p2280
sbsI275
(iasset
Asset
p2281
(dp2282
g3
I28
sg4
(dp2283
g6
I7
sg7
F9.1
sg8
F0.03
ssg9
VModern
p2284
sg11
g236
sg13
VAnson Rug
p2285
sg15
g403
sg17
VLiving Room
p2286
sg19
g662
sg21
V5ba265cde852e80dad11b778
p2287
sg23
VCasaone
p2288
sbsI276
(iasset
Asset
p2289
(dp2290
g3
I46
sg4
(dp2291
g6
F3.91
sg7
F2.15
sg8
F1.25
ssg9
VCONTEMPORARY
p2292
sg11
g12
sg13
VShaman Coffee Table
p2293
sg15
g30
sg17
VLiving Room
p2294
sg19
g140
sg21
V5ba262f1e852e80dad11b777
p2295
sg23
VCasaone
p2296
sbsI277
(iasset
Asset
p2297
(dp2298
g3
I26
sg4
(dp2299
g6
F1.64
sg7
F1.64
sg8
F1.49
ssg9
VModern
p2300
sg11
g12
sg13
VShaman Side Table
p2301
sg15
g30
sg17
VLiving Room
p2302
sg19
VNested Tables
p2303
sg21
V5ba252b9e852e80dad11b75c
p2304
sg23
VCasaone
p2305
sbsI278
(iasset
Asset
p2306
(dp2307
g3
I850
sg4
(dp2308
g6
F4.58
sg7
F1.91
sg8
F2.5
ssg9
VRUSTIC
p2309
sg11
g12
sg13
VFULTON DESK
p2310
sg15
g30
sg17
VStudio
p2311
sg19
VStudy Tables
p2312
sg21
V5ba24cc9e852e80dad11b729
p2313
sg23
VRestoration Hardware
p2314
sbsI279
(iasset
Asset
p2315
(dp2316
g3
I1195
sg4
(dp2317
g6
F2.25
sg7
F2.08
sg8
F2.75
ssg9
VHollywood Regency
p2318
sg11
g12
sg13
VTREVISO TUFTED DESK CHAIR
p2319
sg15
g121
sg17
VMaster Bedroom
p2320
sg19
VOffice Chairs
p2321
sg21
V5ba2449de852e80dad11b6de
p2322
sg23
VRestoration Hardware
p2323
sbsI280
(iasset
Asset
p2324
(dp2325
g3
I495
sg4
(dp2326
g6
F1.83
sg7
F0.03
sg8
F1.83
ssg9
VModern
p2327
sg11
g225
sg13
VPRESERVED SEA FAN
p2328
sg15
g494
sg17
VLiving Room
p2329
sg19
g916
sg21
V5ba2428be852e80dad11b6ca
p2330
sg23
VRestoration Hardware
p2331
sbsI281
(iasset
Asset
p2332
(dp2333
g3
I695
sg4
(dp2334
g6
F1.667
sg7
F2.08
sg8
F3.41
ssg9
VIndustrial
p2335
sg11
g12
sg13
VHUDSON PARSONS LEATHER SIDE CHAIR
p2336
sg15
g121
sg17
VMaster Bedroom
p2337
sg19
g2321
sg21
V5ba23beae852e80dad11b6ab
p2338
sg23
VRestoration Hardware
p2339
sbsI282
(iasset
Asset
p2340
(dp2341
g3
I279
sg4
(dp2342
g6
F4.58
sg7
F4.58
sg8
I2
ssg9
VIndustrial
p2343
sg11
g12
sg13
VLUXE FAUX FUR BEAN BAG-ARCTIC FOX
p2344
sg15
g121
sg17
VMaster Bedroom
p2345
sg19
VBean Bags
p2346
sg21
V5ba22e62e852e80dad11b64f
p2347
sg23
VRestoration Hardware
p2348
sbsI283
(iasset
Asset
p2349
(dp2350
g3
I279
sg4
(dp2351
g6
F4.58
sg7
F4.58
sg8
I2
ssg9
VIndustrial
p2352
sg11
g12
sg13
VLUXE FAUX FUR BEAN BAG-LYNX
p2353
sg15
g121
sg17
VGuest Room
p2354
sg19
g2346
sg21
V5ba22bece852e80dad11b64e
p2355
sg23
VRestoration Hardware
p2356
sbsI284
(iasset
Asset
p2357
(dp2358
g3
I279
sg4
(dp2359
g6
F4.58
sg7
F4.58
sg8
I2
ssg9
VIndustrial
p2360
sg11
g12
sg13
VLUXE FAUX FUR BEAN BAG-MINK
p2361
sg15
g121
sg17
VLiving Room
p2362
sg19
g2346
sg21
V5ba22a92e852e80dad11b64d
p2363
sg23
VRestoration Hardware
p2364
sbsI285
(iasset
Asset
p2365
(dp2366
g3
I169
sg4
(dp2367
g6
F0.667
sg7
F0.667
sg8
F0.83
ssg9
VIndustrial
p2368
sg11
g57
sg13
VCLEAR GLASS FUNNEL SCONCE
p2369
sg15
g59
sg17
VStudio
p2370
sg19
VWall Lights
p2371
sg21
V5ba21240e852e80dad11b630
p2372
sg23
VRestoration Hardware
p2373
sbsI286
(iasset
Asset
p2374
(dp2375
g3
I1895
sg4
(dp2376
g6
F4.5
sg7
F4.5
sg8
F1.33
ssg9
VIndustrial
p2377
sg11
g12
sg13
VAGED ELM-MARTENS ROUND COFFEE TABLE
p2378
sg15
g30
sg17
VStudio
p2379
sg19
g140
sg21
V5ba20f66e852e80dad11b62f
p2380
sg23
VRestoration Hardware
p2381
sbsI287
(iasset
Asset
p2382
(dp2383
g3
I1895
sg4
(dp2384
g6
F4.5
sg7
F4.5
sg8
F1.33
ssg9
VIndustrial
p2385
sg11
g12
sg13
VAGED BROWN OAK-MARTENS ROUND COFFEE TABLE
p2386
sg15
g30
sg17
VLiving Room
p2387
sg19
g140
sg21
V5ba20e6be852e80dad11b62e
p2388
sg23
VRestoration Hardware
p2389
sbsI288
(iasset
Asset
p2390
(dp2391
g3
I450
sg4
(dp2392
g6
I1
sg7
I1
sg8
F2.5
ssg9
VIndustrial
p2393
sg11
g57
sg13
V1940S ARCHITECT'S BOOM SCONCE
p2394
sg15
g59
sg17
VStudio
p2395
sg19
g2371
sg21
V5ba20ca8e852e80dad11b62d
p2396
sg23
VRestoration Hardware
p2397
sbsI289
(iasset
Asset
p2398
(dp2399
g3
I4695
sg4
(dp2400
g6
F6.5
sg7
F7.5
sg8
F3.167
ssg9
VIndustrial
p2401
sg11
g12
sg13
VRECLAIMED RUSSIAN OAK PLATFORM BED
p2402
sg15
g16
sg17
VStudio
p2403
sg19
g20
sg21
V5ba20a79e852e80dad11b62c
p2404
sg23
VRestoration Hardware
p2405
sbsI290
(iasset
Asset
p2406
(dp2407
g3
I2350
sg4
(dp2408
g6
F4.58
sg7
F2.66
sg8
F1.25
ssg9
VCONTEMPORARY
p2409
sg11
g12
sg13
VCOFFEE TABLE OTTOMAN
p2410
sg15
g30
sg17
VLiving Room
p2411
sg19
g140
sg21
V5ba207d3e852e80dad11b62b
p2412
sg23
VRestoration Hardware
p2413
sbsI291
(iasset
Asset
p2414
(dp2415
g3
I5195
sg4
(dp2416
g6
F7.33
sg7
F8.08
sg8
F3.58
ssg9
VIndustrial
p2417
sg11
g12
sg13
VASPEN FRENCH OAK PLATFORM BED
p2418
sg15
g16
sg17
VStudio
p2419
sg19
g20
sg21
V5ba20663e852e80dad11b62a
p2420
sg23
VRestoration Hardware
p2421
sbsI292
(iasset
Asset
p2422
(dp2423
g3
I7895
sg4
(dp2424
g6
I6
sg7
F3.16
sg8
F2.66
ssg9
VCONTEMPORARY
p2425
sg11
g12
sg13
VCLASSIC SLOPE ARM SOFA
p2426
sg15
g325
sg17
VLiving Room
p2427
sg19
g738
sg21
V5ba2060be852e80dad11b629
p2428
sg23
VRestoration Hardware
p2429
sbsI293
(iasset
Asset
p2430
(dp2431
g3
I395
sg4
(dp2432
g6
F2.08
sg7
F2.41
sg8
F2.5
ssg9
VIndustrial
p2433
sg11
g12
sg13
VCOUTURIER'S CHAIR
p2434
sg15
g121
sg17
VLiving Room
p2435
sg19
g123
sg21
V5ba20093e852e80dad11b628
p2436
sg23
VRestoration Hardware
p2437
sbsI294
(iasset
Asset
p2438
(dp2439
g3
I2295
sg4
(dp2440
g6
I5
sg7
I7
sg8
F0.1
ssg9
VScandinavian
p2441
sg11
g236
sg13
VQUADRO RUG - MARINE
p2442
sg15
g403
sg17
VLiving Room
p2443
sg19
g662
sg21
V5b9ff1ece852e80dad11b3ca
p2444
sg23
VRestoration Hardware
p2445
sbsI295
(iasset
Asset
p2446
(dp2447
g3
I299
sg4
(dp2448
g6
F1.83
sg7
F0.4
sg8
F1.83
ssg9
VScandinavian
p2449
sg11
g236
sg13
VSTOWE BRUSHED ALPACA MULTISTRIPE PILLOW COVER
p2450
sg15
g238
sg17
VMaster Bedroom
p2451
sg19
g679
sg21
V5b9feb666d9c900e1f76b9fe
p2452
sg23
VRestoration Hardware
p2453
sbsI296
(iasset
Asset
p2454
(dp2455
g3
I299
sg4
(dp2456
g6
F1.83
sg7
F0.4
sg8
F1.83
ssg9
VECCENTRIC / ECLECTIC
p2457
sg11
g236
sg13
VMOROCCAN CACTUS SILK PILLOW COVER - SQUARE
p2458
sg15
g238
sg17
VMaster Bedroom
p2459
sg19
g679
sg21
V5b9fead26d9c900e1f76b9fd
p2460
sg23
VRestoration Hardware
p2461
sbsI297
(iasset
Asset
p2462
(dp2463
g3
I219
sg4
(dp2464
g6
F1.75
sg7
F0.8
sg8
F1.08
ssg9
VBohemian
p2465
sg11
g236
sg13
VMOROCCAN CACTUS SILK PILLOW COVER
p2466
sg15
g238
sg17
VMaster Bedroom
p2467
sg19
g679
sg21
V5b9fe93b6d9c900e1f76b9fc
p2468
sg23
VRestoration Hardware
p2469
sbsI298
(iasset
Asset
p2470
(dp2471
g3
I4095
sg4
(dp2472
g6
I7
sg7
F3.33
sg8
F2.5
ssg9
VMid Century
p2473
sg11
g12
sg13
VX-BASE RECTANGULAR DINING TABLE
p2474
sg15
g307
sg17
VDining Room
p2475
sg19
g379
sg21
V5b9fe6fc6d9c900e1f76b9fa
p2476
sg23
VRestoration Hardware
p2477
sbsI299
(iasset
Asset
p2478
(dp2479
g3
I3495
sg4
(dp2480
g6
I7
sg7
F2.5
sg8
I3
ssg9
VIndustrial
p2481
sg11
g12
sg13
VTRESTLE RECTANGULAR EXTENSION DINING TABLE
p2482
sg15
g307
sg17
VDining Room
p2483
sg19
g379
sg21
V5b9fe02b6d9c900e1f76b9cd
p2484
sg23
VRestoration Hardware
p2485
sbsI300
(iasset
Asset
p2486
(dp2487
g3
I3095
sg4
(dp2488
g6
F3.667
sg7
I2
sg8
F6.41
ssg9
VMid Century
p2489
sg11
g12
sg13
VENGLISH BRASS BAR PULL GLASS DOUBLE-DOOR CABINET
p2490
sg15
g165
sg17
VLiving and Dining Room
p2491
sg19
VCrockery Units
p2492
sg21
V5b9fd4c46d9c900e1f76b90a
p2493
sg23
VRestoration Hardware
p2494
sbsI301
(iasset
Asset
p2495
(dp2496
g3
I2195
sg4
(dp2497
g6
F3.167
sg7
F1.5
sg8
F6.4
ssg9
VIndustrial
p2498
sg11
g12
sg13
VAGED OAK FRENCH CASEMENT DOUBLE-DOOR CABINET
p2499
sg15
g165
sg17
VDining Room
p2500
sg19
g2492
sg21
V5b9fd3306d9c900e1f76b909
p2501
sg23
VRestoration Hardware
p2502
sbsI302
(iasset
Asset
p2503
(dp2504
g3
I1695
sg4
(dp2505
g6
F2.9
sg7
F2.9
sg8
F2.5
ssg9
VMINIMALIST
p2506
sg11
g12
sg13
VSAND 1930S ENGLISH TUFTED TUB CHAIR
p2507
sg15
g121
sg17
VLiving and Dining Room
p2508
sg19
g123
sg21
V5b9fc8e36d9c900e1f76b8f8
p2509
sg23
VRestoration Hardware
p2510
sbsI303
(iasset
Asset
p2511
(dp2512
g3
I297
sg4
(dp2513
g6
F1.25
sg7
F1.25
sg8
F2.41
ssg9
VIndustrial
p2514
sg11
g12
sg13
V1940S VINTAGE TOLEDO BARSTOOL
p2515
sg15
g121
sg17
VDining Room
p2516
sg19
g1815
sg21
V5b9fb6ef6d9c900e1f76b8e5
p2517
sg23
VRestoration Hardware
p2518
sbsI304
(iasset
Asset
p2519
(dp2520
g3
I595
sg4
(dp2521
g6
F0.9
sg7
F0.9
sg8
I2
ssg9
VIndustrial
p2522
sg11
g57
sg13
VLANGUEDOC PENDANT
p2523
sg15
g59
sg17
VDining Room
p2524
sg19
g779
sg21
V5b9fb5c56d9c900e1f76b8e4
p2525
sg23
VRestoration Hardware
p2526
sbsI305
(iasset
Asset
p2527
(dp2528
g3
I995
sg4
(dp2529
g6
F5.33
sg7
I2
sg8
I3
ssg9
VIndustrial
p2530
sg11
g12
sg13
VFLATIRON BAR
p2531
sg15
g30
sg17
VDining Room
p2532
sg19
VBar tables
p2533
sg21
V5b9fae846d9c900e1f76b8de
p2534
sg23
VRestoration Hardware
p2535
sbsI306
(iasset
Asset
p2536
(dp2537
g3
I1145
sg4
(dp2538
g6
F2.25
sg7
F0.03
sg8
F3.16
ssg9
VModern
p2539
sg11
g225
sg13
VCALIFORNIA SUNSET 4
p2540
sg15
g494
sg17
VLiving and Dining Room
p2541
sg19
g916
sg21
V5b9f6a7d6d9c900e1f76b56f
p2542
sg23
VRestoration Hardware
p2543
sbsI307
(iasset
Asset
p2544
(dp2545
g3
I1745
sg4
(dp2546
g6
F3.16
sg7
F0.03
sg8
F3.16
ssg9
VModern
p2547
sg11
g225
sg13
VKATE SCHERMERHORN
p2548
sg15
g494
sg17
VLiving Room
p2549
sg19
g916
sg21
V5b9f67586d9c900e1f76b500
p2550
sg23
VRestoration Hardware
p2551
sbsI308
(iasset
Asset
p2552
(dp2553
g3
I1495
sg4
(dp2554
g6
F3.33
sg7
F3.33
sg8
F3.5
ssg9
VIndustrial
p2555
sg11
g57
sg13
VORB CHANDELIER 
p2556
sg15
g59
sg17
VLiving and Dining Room
p2557
sg19
g61
sg21
V5b9f640e6d9c900e1f76b4ff
p2558
sg23
VRestoration Hardware
p2559
sbsI309
(iasset
Asset
p2560
(dp2561
g3
I1865
sg4
(dp2562
g6
F3.31
sg7
F3.31
sg8
F3.33
ssg9
VIndustrial
p2563
sg11
g57
sg13
VVINTAGE ROUND CHANDELIER
p2564
sg15
g59
sg17
VLiving Room
p2565
sg19
g61
sg21
V5b9f5c31d846844c6fc4bcfd
p2566
sg23
VRestoration Hardware
p2567
sbsI310
(iasset
Asset
p2568
(dp2569
g3
I2495
sg4
(dp2570
g6
F2.5
sg7
F0.25
sg8
F3.33
ssg9
VModern
p2571
sg11
g214
sg13
VRIBBED METAL MIRROR
p2572
sg15
g216
sg17
VLiving Room
p2573
sg19
g218
sg21
V5b9f54c1d846844c6fc4bcb1
p2574
sg23
VRestoration Hardware
p2575
sbsI311
(iasset
Asset
p2576
(dp2577
g3
I2395
sg4
(dp2578
g6
F2.5
sg7
F0.25
sg8
F3.33
ssg9
VModern
p2579
sg11
g214
sg13
VMETAL FRAMED MIRROR
p2580
sg15
g216
sg17
VLiving Room
p2581
sg19
g218
sg21
V5b9f5377d846844c6fc4bcb0
p2582
sg23
VRestoration Hardware
p2583
sbsI312
(iasset
Asset
p2584
(dp2585
g3
I255
sg4
(dp2586
g6
F2.25
sg7
F0.1667
sg8
F1.25
ssg9
VRUSTIC
p2587
sg11
g214
sg13
VCARVED SLATE RECTANGULAR VASE
p2588
sg15
g2144
sg17
VGuest Room
p2589
sg19
Vpots
p2590
sg21
V5b9cf57971d9394a4fa18f07
p2591
sg23
VRestoration Hardware
p2592
sbsI313
(iasset
Asset
p2593
(dp2594
g3
I115
sg4
(dp2595
g6
F2.27
sg7
I1
sg8
F0.667
ssg9
VRUSTIC
p2596
sg11
g214
sg13
VWEATHERED STONE VESSEL
p2597
sg15
g2144
sg17
VLiving Room
p2598
sg19
g2590
sg21
V5b9cef1171d9394a4fa18f06
p2599
sg23
VRestoration Hardware
p2600
sbsI314
(iasset
Asset
p2601
(dp2602
g3
I85
sg4
(dp2603
g6
F0.67
sg7
F0.67
sg8
F0.83
ssg9
VRUSTIC
p2604
sg11
g214
sg13
VORGANIC CONCRETE VESSEL SMALL
p2605
sg15
g2144
sg17
VLiving Room
p2606
sg19
g2590
sg21
V5b9ce50771d9394a4fa18efe
p2607
sg23
VRestoration Hardware
p2608
sbsI315
(iasset
Asset
p2609
(dp2610
g3
I1795
sg4
(dp2611
g6
F7.91
sg7
F1.25
sg8
F1.5
ssg9
VIndustrial
p2612
sg11
g12
sg13
VPARSONS BENCH
p2613
sg15
g121
sg17
VDining Room
p2614
sg19
g370
sg21
V5b9cddcf71d9394a4fa18efd
p2615
sg23
VRestoration Hardware
p2616
sbsI316
(iasset
Asset
p2617
(dp2618
g3
I795
sg4
(dp2619
g6
F2.66
sg7
F1.91
sg8
F6.91
ssg9
VIndustrial
p2620
sg11
g12
sg13
VRECLAIMED SHELVING
p2621
sg15
g165
sg17
VLiving and Dining Room
p2622
sg19
g267
sg21
V5b9cda9f71d9394a4fa18ed5
p2623
sg23
VRestoration Hardware
p2624
sbsI317
(iasset
Asset
p2625
(dp2626
g3
I109
sg4
(dp2627
g6
F0.667
sg7
F0.1
sg8
F0.833
ssg9
VHollywood Regency
p2628
sg11
g225
sg13
V8X10 CAST RIBBED METAL FRAME
p2629
sg15
VPicture Frames
p2630
sg17
VGuest Room
p2631
sg19
Vsingle photo frames
p2632
sg21
V5b9cd89771d9394a4fa18ed4
p2633
sg23
VRestoration Hardware
p2634
sbsI318
(iasset
Asset
p2635
(dp2636
g3
I89
sg4
(dp2637
g6
F0.417
sg7
F0.1
sg8
F0.58
ssg9
VRUSTIC
p2638
sg11
g225
sg13
V5X7 CAST RIBBED METAL FRAME
p2639
sg15
g2630
sg17
VGuest Room
p2640
sg19
g2632
sg21
V5b9cd78c71d9394a4fa18ecb
p2641
sg23
VRestoration Hardware
p2642
sbsI319
(iasset
Asset
p2643
(dp2644
g3
I79
sg4
(dp2645
g6
F0.33
sg7
F0.1
sg8
F0.5
ssg9
VRUSTIC
p2646
sg11
g225
sg13
V4X6 CAST RIBBED METAL FRAME
p2647
sg15
g2630
sg17
VGuest Room
p2648
sg19
g2632
sg21
V5b9cd70c71d9394a4fa18eca
p2649
sg23
VRestoration Hardware
p2650
sbsI320
(iasset
Asset
p2651
(dp2652
g3
I995
sg4
(dp2653
g6
F2.29
sg7
F1.58
sg8
F6.45
ssg9
VIndustrial
p2654
sg11
g12
sg13
VNARROW SINGLE SHELVING
p2655
sg15
g165
sg17
VLiving and Dining Room
p2656
sg19
g267
sg21
V5b9cd04171d9394a4fa18ec9
p2657
sg23
VRestoration Hardware
p2658
sbsI321
(iasset
Asset
p2659
(dp2660
g3
I3195
sg4
(dp2661
g6
F2.75
sg7
F2.66
sg8
F5.08
ssg9
VMid Century
p2662
sg11
g12
sg13
VVERSAILLES CHAIR
p2663
sg15
g121
sg17
VLiving Room
p2664
sg19
g123
sg21
V5b9cc2b071d9394a4fa18ec8
p2665
sg23
VRestoration Hardware
p2666
sbsI322
(iasset
Asset
p2667
(dp2668
g3
I850
sg4
(dp2669
g6
F2.16
sg7
F2.25
sg8
F2.33
ssg9
VMid Century
p2670
sg11
g12
sg13
VSOPHIE TUFTED CHAIR
p2671
sg15
g121
sg17
VLiving Room
p2672
sg19
g123
sg21
V5b9ca7549eb22015d1323538
p2673
sg23
VRestoration Hardware
p2674
sbsI323
(iasset
Asset
p2675
(dp2676
g3
F112.99
sg4
(dp2677
g6
F0.5
sg7
F0.5
sg8
F1.33
ssg9
VScandinavian
p2678
sg11
g57
sg13
VSwing Arm Lamp
p2679
sg15
g59
sg17
VGuest Room
p2680
sg19
g2371
sg21
V5b9bd2c4b9db432925e7c1d6
p2681
sg23
VWayfair
p2682
sbsI324
(iasset
Asset
p2683
(dp2684
g3
I129
sg4
(dp2685
g6
F1.67
sg7
I2
sg8
F2.08
ssg9
VScandinavian
p2686
sg11
g214
sg13
VOversized Seagrass Basket
p2687
sg15
VBaskets
p2688
sg17
VKids Room
p2689
sg19
VWoven Baskets
p2690
sg21
V5b9bbc24b9db432925e7c1a2
p2691
sg23
VWest Elm
p2692
sbsI325
(iasset
Asset
p2693
(dp2694
g3
I3515
sg4
(dp2695
g6
I10
sg7
F3.33
sg8
F2.5
ssg9
VIndian Contemporary
p2696
sg11
g12
sg13
VSALVAGED WOOD X-BASE  TABLE
p2697
sg15
g307
sg17
VDining Room
p2698
sg19
g379
sg21
V5b9bb8dab9db432925e7c192
p2699
sg23
VRestoration Hardware
p2700
sbsI326
(iasset
Asset
p2701
(dp2702
g3
I4095
sg4
(dp2703
g6
I10
sg7
F3.33
sg8
F2.5
ssg9
VRUSTIC
p2704
sg11
g12
sg13
VSALVAGED WOOD DINING TABLE
p2705
sg15
g307
sg17
VDining Room
p2706
sg19
g379
sg21
V5b9bb67db9db432925e7c18d
p2707
sg23
VRestoration Hardware
p2708
sbsI327
(iasset
Asset
p2709
(dp2710
g3
I1040
sg4
(dp2711
g6
F4.5
sg7
F1.5
sg8
F2.67
ssg9
VScandinavian
p2712
sg11
g12
sg13
VJeweled 6 Drawer Dresser
p2713
sg15
g48
sg17
VKids Room
p2714
sg19
g50
sg21
V5b9bb4c2b9db432925e7c174
p2715
sg23
VWest Elm
p2716
sbsI328
(iasset
Asset
p2717
(dp2718
g3
I2610
sg4
(dp2719
g6
F3.33
sg7
F3.33
sg8
I2
ssg9
VRUSTIC
p2720
sg11
g57
sg13
VANTLER CHANDELIER
p2721
sg15
g59
sg17
VLiving Room
p2722
sg19
g61
sg21
V5b9ba5e4b9db432925e7c153
p2723
sg23
VRestoration Hardware
p2724
sbsI329
(iasset
Asset
p2725
(dp2726
g3
I247
sg4
(dp2727
g6
F1.66
sg7
I2
sg8
F3.16
ssg9
VRUSTIC
p2728
sg11
g12
sg13
VCANE BACK CHAIR
p2729
sg15
g307
sg17
VDining Room
p2730
sg19
g336
sg21
V5b9ba013b9db432925e7c152
p2731
sg23
VRestoration Hardware
p2732
sbsI330
(iasset
Asset
p2733
(dp2734
g3
I595
sg4
(dp2735
g6
F1.75
sg7
F1.78
sg8
F2.75
ssg9
VScandinavian
p2736
sg11
g12
sg13
VKLISMOS FABRIC SIDE CHAIR
p2737
sg15
g307
sg17
VDining Room
p2738
sg19
g336
sg21
V5b9b9e64b9db432925e7c151
p2739
sg23
VRestoration Hardware
p2740
sbsI331
(iasset
Asset
p2741
(dp2742
g3
F115.99
sg4
(dp2743
g6
I2
sg7
F0.01
sg8
I3
ssg9
VScandinavian
p2744
sg11
g214
sg13
VLongwood Wall Mirror
p2745
sg15
g216
sg17
VMaster Bedroom
p2746
sg19
g218
sg21
V5b9b9455b9db432925e7c0ec
p2747
sg23
VJoss And Main
p2748
sbsI332
(iasset
Asset
p2749
(dp2750
g3
I10295
sg4
(dp2751
g6
I6
sg7
F2.83
sg8
F2.58
ssg9
VCONTEMPORARY
p2752
sg11
g12
sg13
VPAXTON SOFA
p2753
sg15
g325
sg17
VLiving Room
p2754
sg19
g738
sg21
V5b9b8cbbb9db432925e7c0b3
p2755
sg23
VRestoration Hardware
p2756
sbsI333
(iasset
Asset
p2757
(dp2758
g3
F10.99
sg4
(dp2759
g6
F1.5
sg7
F0.1
sg8
F1.5
ssg9
VIndustrial
p2760
sg11
g236
sg13
VCotton Pillow Cover
p2761
sg15
g238
sg17
VMaster Bedroom
p2762
sg19
g679
sg21
V5b9ad48efd10fd61a1f41c94
p2763
sg23
VJoss And Main
p2764
sbsI334
(iasset
Asset
p2765
(dp2766
g3
F76.99
sg4
(dp2767
g6
F4.33
sg7
F0.3
sg8
I7
ssg9
VScandinavian
p2768
sg11
g236
sg13
VThermal Grommet Curtain Panels
p2769
sg15
VCurtains
p2770
sg17
VGuest Room
p2771
sg19
VDoor Curtains
p2772
sg21
V5b9ad179fd10fd61a1f41c8b
p2773
sg23
VJoss And Main
p2774
sbsI335
(iasset
Asset
p2775
(dp2776
g3
I320
sg4
(dp2777
g6
F1.5
sg7
F1.5
sg8
I2
ssg9
VScandinavian
p2778
sg11
g12
sg13
VJeweled Nightstand
p2779
sg15
g30
sg17
VMaster Bedroom
p2780
sg19
g32
sg21
V5b9acbdbfd10fd61a1f41c8a
p2781
sg23
VWest Elm
p2782
sbsI336
(iasset
Asset
p2783
(dp2784
g3
F118.32
sg4
(dp2785
g6
F4.58
sg7
F6.48
sg8
F4.04
ssg9
VSHABBY-CHIC
p2786
sg11
g12
sg13
VRhys Platform Bed
p2787
sg15
g16
sg17
VKids Room
p2788
sg19
g20
sg21
V5b9ac664fd10fd61a1f41c86
p2789
sg23
VWayfair
p2790
sbsI337
(iasset
Asset
p2791
(dp2792
g3
F79.99
sg4
(dp2793
g6
F1.65
sg7
F1.32
sg8
F2.25
ssg9
VScandinavian
p2794
sg11
g12
sg13
VAdeline End Table
p2795
sg15
g30
sg17
VMaster Bedroom
p2796
sg19
g78
sg21
V5b99523811c8f26b3c7b7c2b
p2797
sg23
VWayfair
p2798
sbsI338
(iasset
Asset
p2799
(dp2800
g3
F31.99
sg4
(dp2801
g6
F2.95
sg7
F0.375
sg8
F0.29
ssg9
VScandinavian
p2802
sg11
g12
sg13
VPicture Ledge Wall Shelf
p2803
sg15
g165
sg17
VLiving Room
p2804
sg19
g555
sg21
V5b993ff611c8f26b3c7b7c20
p2805
sg23
VWayfair
p2806
sbsI339
(iasset
Asset
p2807
(dp2808
g3
F108.99
sg4
(dp2809
g6
F3.375
sg7
F0.01
sg8
F2.125
ssg9
VScandinavian
p2810
sg11
g225
sg13
VAcrylic Painting Print
p2811
sg15
g494
sg17
VMaster Bedroom
p2812
sg19
Vstill life art panels
p2813
sg21
V5b9939b511c8f26b3c7b7bef
p2814
sg23
VJoss And Main
p2815
sbsI340
(iasset
Asset
p2816
(dp2817
g3
F126.99
sg4
(dp2818
g6
I5
sg7
F7.5
sg8
F0.01
ssg9
VScandinavian
p2819
sg11
g236
sg13
VDuhon Ivory
p2820
sg15
g403
sg17
VMaster Bedroom
p2821
sg19
g662
sg21
V5b99363111c8f26b3c7b7bee
p2822
sg23
VJoss And Main
p2823
sbsI341
(iasset
Asset
p2824
(dp2825
g3
F175.99
sg4
(dp2826
g6
I8
sg7
I10
sg8
F0.1
ssg9
VScandinavian
p2827
sg11
g236
sg13
VWelford White Shag Area Rug
p2828
sg15
g403
sg17
VLiving Room
p2829
sg19
g662
sg21
V5b99329e11c8f26b3c7b7bed
p2830
sg23
VWayfair
p2831
sbsI342
(iasset
Asset
p2832
(dp2833
g3
I78
sg4
(dp2834
g6
F1.5
sg7
F0.25
sg8
F1.5
ssg9
VIndustrial
p2835
sg11
g236
sg13
VMarilyn House Pillow
p2836
sg15
g238
sg17
VLiving Room
p2837
sg19
g505
sg21
V5b990c3384482a5b8a73f885
p2838
sg23
VWayfair
p2839
sbsI343
(iasset
Asset
p2840
(dp2841
g3
I570
sg4
(dp2842
g6
F2.66
sg7
F2.66
sg8
F1.16
ssg9
VIndustrial
p2843
sg11
g12
sg13
VSheree Concrete Table
p2844
sg15
g30
sg17
VLiving Room
p2845
sg19
g140
sg21
V5b99063084482a5b8a73f860
p2846
sg23
VWayfair
p2847
sbsI344
(iasset
Asset
p2848
(dp2849
g3
I113
sg4
(dp2850
g6
F1.6
sg7
F1.64
sg8
F3.18
ssg9
VScandinavian
p2851
sg11
g12
sg13
VToby Dining Chair
p2852
sg15
g307
sg17
VDining Room
p2853
sg19
g336
sg21
V5b98fe1ebf30fa668820460b
p2854
sg23
VWayfair
p2855
sbsI345
(iasset
Asset
p2856
(dp2857
g3
I36
sg4
(dp2858
g6
I8
sg7
I10
sg8
F0.05
ssg9
VIndustrial
p2859
sg11
g236
sg13
VBernd Area Rug
p2860
sg15
g403
sg17
VLiving Room
p2861
sg19
g662
sg21
V5b98f825bf30fa66882045ef
p2862
sg23
VWayfair
p2863
sbsI346
(iasset
Asset
p2864
(dp2865
g3
I122
sg4
(dp2866
g6
F3.83
sg7
I5
sg8
F0.05
ssg9
VIndustrial
p2867
sg11
g236
sg13
VWynsum Area Rug
p2868
sg15
g403
sg17
VLiving Room
p2869
sg19
g405
sg21
V5b98f317bf30fa66882045bc
p2870
sg23
VWayfair
p2871
sbsI347
(iasset
Asset
p2872
(dp2873
g3
F519.99
sg4
(dp2874
g6
F5.75
sg7
F7.4
sg8
I4
ssg9
VScandinavian
p2875
sg11
g12
sg13
VParocela Upholstered Platform Bed
p2876
sg15
g16
sg17
VKids Room
p2877
sg19
g20
sg21
V5b98eb85bf30fa66882044d7
p2878
sg23
VWayfair
p2879
sbsI348
(iasset
Asset
p2880
(dp2881
g3
I80
sg4
(dp2882
g6
F0.83
sg7
F0.87
sg8
F0.83
ssg9
VIndustrial
p2883
sg11
g57
sg13
VGingrich Armed Scone
p2884
sg15
g59
sg17
VKids Room
p2885
sg19
g2371
sg21
V5b98dc82bf30fa668820446b
p2886
sg23
VWayfair
p2887
sbsI349
(iasset
Asset
p2888
(dp2889
g3
I1250
sg4
(dp2890
g6
F1.58
sg7
F1.58
sg8
F1.58
ssg9
VScandinavian
p2891
sg11
g12
sg13
VRECLAIMED RUSSIAN OAK PARSONS CUBE-BROWN
p2892
sg15
g30
sg17
VMaster Bedroom
p2893
sg19
g32
sg21
V5b98dc75bf30fa668820446a
p2894
sg23
VRestoration Hardware
p2895
sbsI350
(iasset
Asset
p2896
(dp2897
g3
I1250
sg4
(dp2898
g6
F1.58
sg7
F1.58
sg8
F1.58
ssg9
VRUSTIC
p2899
sg11
g12
sg13
VRECLAIMED RUSSIAN OAK PARSONS CUBE-GREY
p2900
sg15
g30
sg17
VMaster Bedroom
p2901
sg19
g32
sg21
V5b98dbbabf30fa6688204469
p2902
sg23
VRestoration Hardware
p2903
sbsI351
(iasset
Asset
p2904
(dp2905
g3
I1250
sg4
(dp2906
g6
F1.58
sg7
F1.58
sg8
F1.58
ssg9
VIndustrial
p2907
sg11
g12
sg13
VRECLAIMED RUSSIAN OAK PARSONS CUBE
p2908
sg15
g30
sg17
VMaster Bedroom
p2909
sg19
g32
sg21
V5b98da2fbf30fa6688204468
p2910
sg23
VRestoration Hardware
p2911
sbsI352
(iasset
Asset
p2912
(dp2913
g3
I41
sg4
(dp2914
g6
F1.5
sg7
F0.06
sg8
F1.5
ssg9
VIndustrial
p2915
sg11
g225
sg13
VVintage Motorcycles Canvas
p2916
sg15
g494
sg17
VKids Room
p2917
sg19
Vtransport art panels
p2918
sg21
V5b98be11bf30fa66882043d5
p2919
sg23
VWayfair
p2920
sbsI353
(iasset
Asset
p2921
(dp2922
g3
I680
sg4
(dp2923
g6
F5.52
sg7
F7.12
sg8
F4.41
ssg9
VIndustrial
p2924
sg11
g12
sg13
VMcville Panel Bed
p2925
sg15
g16
sg17
VKids Room
p2926
sg19
g20
sg21
V5b98bc2ebf30fa66882043d4
p2927
sg23
VWayfair
p2928
sbsI354
(iasset
Asset
p2929
(dp2930
g3
F135.81
sg4
(dp2931
g6
F1.71
sg7
F1.71
sg8
F1.45
ssg9
VTRANSITIONAL
p2932
sg11
g57
sg13
VTadwick 3-Light Pendant
p2933
sg15
g59
sg17
VLiving Room
p2934
sg19
g779
sg21
V5b97c2dabf30fa668820437e
p2935
sg23
VWayfair
p2936
sbsI355
(iasset
Asset
p2937
(dp2938
g3
I168
sg4
(dp2939
g6
F0.33
sg7
F0.33
sg8
F4.1875
ssg9
VModern
p2940
sg11
g57
sg13
VImogen 1-Light Cylinder Pendant
p2941
sg15
g59
sg17
VLiving Room
p2942
sg19
g779
sg21
V5b97badcbf30fa6688204375
p2943
sg23
VWayfair
p2944
sbsI356
(iasset
Asset
p2945
(dp2946
g3
F279.99
sg4
(dp2947
g6
F1.41
sg7
F1.41
sg8
I4
ssg9
VScandinavian
p2948
sg11
g57
sg13
VChristena 3-Light Pendant
p2949
sg15
g59
sg17
VLiving Room
p2950
sg19
g779
sg21
V5b97b5a9bf30fa6688204370
p2951
sg23
VWayfair
p2952
sbsI357
(iasset
Asset
p2953
(dp2954
g3
I124
sg4
(dp2955
g6
F1.5
sg7
F1.75
sg8
F2.83
ssg9
VIndustrial
p2956
sg11
g12
sg13
VIndustrial Side Chair
p2957
sg15
g121
sg17
VKids Room
p2958
sg19
VCafe Chairs
p2959
sg21
V5b97b560bf30fa668820436f
p2960
sg23
VWayfair
p2961
sbsI358
(iasset
Asset
p2962
(dp2963
g3
F61.99
sg4
(dp2964
g6
F0.9167
sg7
F0.9167
sg8
I2
ssg9
VModern
p2965
sg11
g57
sg13
VAbaokoro 1-Light Dome Pendant
p2966
sg15
g59
sg17
VLiving Room
p2967
sg19
g779
sg21
V5b97b1f4bf30fa668820436e
p2968
sg23
VWayfair
p2969
sbsI359
(iasset
Asset
p2970
(dp2971
g3
F45.99
sg4
(dp2972
g6
F0.67
sg7
F0.67
sg8
F1.29
ssg9
VScandinavian
p2973
sg11
g57
sg13
VAbdallah 1-Light Geometric Pendant
p2974
sg15
g59
sg17
VLiving Room
p2975
sg19
g779
sg21
V5b97abeebf30fa668820436d
p2976
sg23
VWayfair
p2977
sbsI360
(iasset
Asset
p2978
(dp2979
g3
F75.99
sg4
(dp2980
g6
F1.5
sg7
F1.5
sg8
F1.75
ssg9
VIndustrial
p2981
sg11
g57
sg13
VIlgaz 1-Light Dome Pendant
p2982
sg15
g59
sg17
VLiving Room
p2983
sg19
g779
sg21
V5b97a67ebf30fa668820436c
p2984
sg23
VWayfair
p2985
sbsI361
(iasset
Asset
p2986
(dp2987
g3
I104
sg4
(dp2988
g6
I4
sg7
I4
sg8
F2.8
ssg9
VIndustrial
p2989
sg11
g12
sg13
VFuf Bean Bag
p2990
sg15
g121
sg17
VKids Room
p2991
sg19
g2346
sg21
V5b979fdbbf30fa6688204361
p2992
sg23
VWayfair
p2993
sbsI362
(iasset
Asset
p2994
(dp2995
g3
I30
sg4
(dp2996
g6
F0.83
sg7
F0.83
sg8
F1.41
ssg9
VIndustrial
p2997
sg11
g214
sg13
VMetal Amillary Sculpture
p2998
sg15
g703
sg17
VLiving and Dining Room
p2999
sg19
g705
sg21
V5b979cbb6af7b6122eceee14
p3000
sg23
VWayfair
p3001
sbsI363
(iasset
Asset
p3002
(dp3003
g3
I40
sg4
(dp3004
g6
F1.5
sg7
F0.06
sg8
F2.16
ssg9
VIndustrial
p3005
sg11
g225
sg13
VHarley Motorcycle Canvas
p3006
sg15
g494
sg17
VKids Room
p3007
sg19
g2918
sg21
V5b9797e76af7b6122eceee13
p3008
sg23
VWayfair
p3009
sbsI364
(iasset
Asset
p3010
(dp3011
g3
I108
sg4
(dp3012
g6
F1.33
sg7
F0.08
sg8
F1.66
ssg9
VIndustrial
p3013
sg11
g225
sg13
VTin Gears Art
p3014
sg15
g494
sg17
VKids Room
p3015
sg19
g2918
sg21
V5b9796646af7b6122eceee12
p3016
sg23
VWayfair
p3017
sbsI365
(iasset
Asset
p3018
(dp3019
g3
I790
sg4
(dp3020
g6
F5.91
sg7
F0.25
sg8
I2
ssg9
VIndustrial
p3021
sg11
g57
sg13
VSteampunk Wall light
p3022
sg15
g59
sg17
VKids Room
p3023
sg19
g2371
sg21
V5b97948b6af7b6122eceee11
p3024
sg23
VWayfair
p3025
sbsI366
(iasset
Asset
p3026
(dp3027
g3
I440
sg4
(dp3028
g6
F3.33
sg7
F1.5
sg8
F5.25
ssg9
VIndustrial
p3029
sg11
g12
sg13
VEtagere Bookcase
p3030
sg15
g165
sg17
VKids Room
p3031
sg19
g267
sg21
V5b9793f16af7b6122eceee10
p3032
sg23
VWayfair
p3033
sbsI367
(iasset
Asset
p3034
(dp3035
g3
I378
sg4
(dp3036
g6
I5
sg7
F2.33
sg8
F2.5
ssg9
VIndustrial
p3037
sg11
g12
sg13
VRocklin Writing Desk
p3038
sg15
g30
sg17
VKids Room
p3039
sg19
g2312
sg21
V5b97933c6af7b6122eceee0f
p3040
sg23
VWayfair
p3041
sbsI368
(iasset
Asset
p3042
(dp3043
g3
I45
sg4
(dp3044
g6
F1.16
sg7
F0.16
sg8
F1.58
ssg9
VIndustrial
p3045
sg11
g225
sg13
VChevy Truck Canvas
p3046
sg15
g494
sg17
VKids Room
p3047
sg19
g2918
sg21
V5b9791736af7b6122eceee0e
p3048
sg23
VWayfair
p3049
sbsI369
(iasset
Asset
p3050
(dp3051
g3
F151.99
sg4
(dp3052
g6
F1.33
sg7
F1.33
sg8
F1.81
ssg9
VRUSTIC
p3053
sg11
g57
sg13
VRussell Farm 3-Light Bowl Pendant
p3054
sg15
g59
sg17
VLiving Room
p3055
sg19
g779
sg21
V5b97902c6af7b6122eceee0d
p3056
sg23
VWayfair
p3057
sbsI370
(iasset
Asset
p3058
(dp3059
g3
I323
sg4
(dp3060
g6
I6
sg7
I4
sg8
F0.1
ssg9
VModern
p3061
sg11
g236
sg13
VSolid Wool And Viscose Blue
p3062
sg15
g403
sg17
VLiving Room
p3063
sg19
g662
sg21
V5b967694b7e2e139c4e4ec6a
p3064
sg23
VPepperfry
p3065
sbsI371
(iasset
Asset
p3066
(dp3067
g3
I323
sg4
(dp3068
g6
I4
sg7
I6
sg8
F0.1
ssg9
VECCENTRIC / ECLECTIC
p3069
sg11
g236
sg13
VSolid Wool And Viscose
p3070
sg15
g403
sg17
VLiving Room
p3071
sg19
g662
sg21
V5b96757eb7e2e139c4e4ec33
p3072
sg23
VPepperfry
p3073
sbsI372
(iasset
Asset
p3074
(dp3075
g3
I31
sg4
(dp3076
g6
F3.75
sg7
F3.75
sg8
F4.9
ssg9
VIndustrial
p3077
sg11
g57
sg13
VGrey Iron Filament Lamp by Tezerac
p3078
sg15
g59
sg17
VLiving Room
p3079
sg19
g779
sg21
V5b966dc6b7e2e139c4e4ec01
p3080
sg23
VPepperfry
p3081
sbsI373
(iasset
Asset
p3082
(dp3083
g3
I86
sg4
(dp3084
g6
I4
sg7
F0.1
sg8
I4
ssg9
VModern
p3085
sg11
g236
sg13
VPORTO DANUBE
p3086
sg15
g2770
sg17
VKids Room
p3087
sg19
VBlinds & Shades
p3088
sg21
V5b966329b7e2e139c4e4ebf3
p3089
sg23
VDDECOR
p3090
sbsI374
(iasset
Asset
p3091
(dp3092
g3
I206
sg4
(dp3093
g6
I5
sg7
I8
sg8
F0.01
ssg9
VModern
p3094
sg11
g236
sg13
VAbstract Pattern Wool Blue
p3095
sg15
g403
sg17
VLiving Room
p3096
sg19
g662
sg21
V5b966124b7e2e139c4e4ebf2
p3097
sg23
VPepperfry
p3098
sbsI375
(iasset
Asset
p3099
(dp3100
g3
I242
sg4
(dp3101
g6
I6
sg7
I9
sg8
F0.01
ssg9
VModern
p3102
sg11
g236
sg13
VGeometric Pattern Polyester Grey
p3103
sg15
g403
sg17
VLiving Room
p3104
sg19
g662
sg21
V5b966032b7e2e139c4e4ebf1
p3105
sg23
VPepperfry
p3106
sbsI376
(iasset
Asset
p3107
(dp3108
g3
I71
sg4
(dp3109
g6
I1
sg7
I1
sg8
I5
ssg9
VScandinavian
p3110
sg11
g57
sg13
VPendant Lamp in Black & Gold
p3111
sg15
g59
sg17
VMaster Bedroom
p3112
sg19
g779
sg21
V5b9657c0b7e2e139c4e4ebe5
p3113
sg23
VPepperfry
p3114
sbsI377
(iasset
Asset
p3115
(dp3116
g3
I192
sg4
(dp3117
g6
F6.08
sg7
F6.67
sg8
I3
ssg9
VIndian Contemporary
p3118
sg11
g12
sg13
VKuruma King Size Storage Bed
p3119
sg15
g16
sg17
VMaster Bedroom
p3120
sg19
VKing Sized Beds
p3121
sg21
V5b965169b7e2e139c4e4ebb2
p3122
sg23
VPepperfry
p3123
sbsI378
(iasset
Asset
p3124
(dp3125
g3
F82.99
sg4
(dp3126
g6
F0.42
sg7
F0.42
sg8
I5
ssg9
VModern
p3127
sg11
g57
sg13
VRussell Farm 1-Light Cone Pendant
p3128
sg15
g59
sg17
VLiving Room
p3129
sg19
g779
sg21
V5b93b33c038573191129c47d
p3130
sg23
VWayfair
p3131
sbsI379
(iasset
Asset
p3132
(dp3133
g3
I93
sg4
(dp3134
g6
F0.58
sg7
F0.58
sg8
F1.27
ssg9
VModern
p3135
sg11
g57
sg13
VHirst 1-Light Drum Pendant
p3136
sg15
g59
sg17
VLiving Room
p3137
sg19
g779
sg21
V5b93b078038573191129c47c
p3138
sg23
VWayfair
p3139
sbsI380
(iasset
Asset
p3140
(dp3141
g3
F98.11
sg4
(dp3142
g6
F0.5
sg7
F0.5
sg8
I5
ssg9
VCOASTAL CASUAL
p3143
sg11
g57
sg13
VLight Cone Pendant
p3144
sg15
g59
sg17
VLiving Room
p3145
sg19
g779
sg21
V5b93adcf038573191129c47b
p3146
sg23
VWayfair
p3147
sbsI381
(iasset
Asset
p3148
(dp3149
g3
F369.99
sg4
(dp3150
g6
F3.625
sg7
F0.167
sg8
I5
ssg9
VModern
p3151
sg11
g57
sg13
VRectangle Pendant Black
p3152
sg15
g59
sg17
VLiving Room
p3153
sg19
g779
sg21
V5b93aab4038573191129c47a
p3154
sg23
VWayfair
p3155
sbsI382
(iasset
Asset
p3156
(dp3157
g3
F999.99
sg4
(dp3158
g6
F1.5
sg7
F1.5
sg8
F1.77
ssg9
VScandinavian
p3159
sg11
g57
sg13
VNowayton LED Pendant
p3160
sg15
g59
sg17
VLiving Room
p3161
sg19
g779
sg21
V5b93a4ca45cad06ea5ad7559
p3162
sg23
VWayfair
p3163
sbsI383
(iasset
Asset
p3164
(dp3165
g3
F309.99
sg4
(dp3166
g6
F1.96
sg7
F1.96
sg8
F1.96
ssg9
VModern
p3167
sg11
g57
sg13
VKey West 1-Light LED Pendant
p3168
sg15
g59
sg17
VLiving Room
p3169
sg19
g779
sg21
V5b93a12a45cad06ea5ad7555
p3170
sg23
VWayfair
p3171
sbsI384
(iasset
Asset
p3172
(dp3173
g3
F266.99
sg4
(dp3174
g6
F2.08
sg7
F2.08
sg8
F2.08
ssg9
VIndustrial
p3175
sg11
g57
sg13
VSteubenville Inverted Pendant
p3176
sg15
g59
sg17
VLiving Room
p3177
sg19
g779
sg21
V5b939ee945cad06ea5ad7551
p3178
sg23
VWayfair
p3179
sbsI385
(iasset
Asset
p3180
(dp3181
g3
I1298
sg4
(dp3182
g6
F2.22
sg7
F2.22
sg8
F2.2
ssg9
VHollywood Regency
p3183
sg11
g12
sg13
VTete-A-Tete Chair
p3184
sg15
g121
sg17
VLiving Room
p3185
sg19
g361
sg21
V5b92620f8ee9813c204fc540
p3186
sg23
VWest Elm
p3187
sbsI386
(iasset
Asset
p3188
(dp3189
g3
I129
sg4
(dp3190
g6
F0.75
sg7
F0.41
sg8
F1.5
ssg9
VHollywood Regency
p3191
sg11
g57
sg13
VPelle Sconce
p3192
sg15
g59
sg17
VLiving Room
p3193
sg19
g2371
sg21
V5b925dc18ee9813c204fc53f
p3194
sg23
VWest Elm
p3195
sbsI387
(iasset
Asset
p3196
(dp3197
g3
F829.99
sg4
(dp3198
g6
I5
sg7
F1.58
sg8
F3.17
ssg9
VHollywood Regency
p3199
sg11
g12
sg13
VKeenum 4 Door Cabinet
p3200
sg15
g165
sg17
VLiving Room
p3201
sg19
g167
sg21
V5b91bc090f659a66bf4fad5c
p3202
sg23
VWayfair
p3203
sbsI388
(iasset
Asset
p3204
(dp3205
g3
F7.999692307692308
sg4
(dp3206
g6
F2.18
sg7
F1.833
sg8
F3.5
ssg9
VHollywood Regency
p3207
sg11
g12
sg13
VBainbridge Side Chair
p3208
sg15
g307
sg17
VDining Room
p3209
sg19
g336
sg21
V5b91aa500f659a66bf4fad02
p3210
sg23
VWayfair
p3211
sbsI389
(iasset
Asset
p3212
(dp3213
g3
I4995
sg4
(dp3214
g6
F3.33
sg7
I7
sg8
F2.5
ssg9
VHollywood Regency
p3215
sg11
g12
sg13
VDALTON RECTANGULAR DINING TABLE
p3216
sg15
g307
sg17
VDining Room
p3217
sg19
g379
sg21
V5b91a6490f659a66bf4facfc
p3218
sg23
VRestoration Hardware
p3219
sbsI390
(iasset
Asset
p3220
(dp3221
g3
F101.33
sg4
(dp3222
g6
F1.31
sg7
F1.31
sg8
F1.7
ssg9
VHollywood Regency
p3223
sg11
g214
sg13
VThe Frankfurt Deer Head
p3224
sg15
g703
sg17
VLiving Room
p3225
sg19
VANIMAL FIGURINES
p3226
sg21
V5b919c3c0f659a66bf4facdd
p3227
sg23
VWayfair
p3228
sbsI391
(iasset
Asset
p3229
(dp3230
g3
I419
sg4
(dp3231
g6
F0.375
sg7
F0.375
sg8
F1.7
ssg9
VHollywood Regency
p3232
sg11
g57
sg13
VAQUITAINE SCONCE
p3233
sg15
g59
sg17
VMaster Bedroom
p3234
sg19
g779
sg21
V5b9196e00f659a66bf4facdb
p3235
sg23
VRestoration Hardware
p3236
sbsI392
(iasset
Asset
p3237
(dp3238
g3
F1649.99
sg4
(dp3239
g6
F7.91
sg7
F3.3
sg8
F2.54
ssg9
VHollywood Regency
p3240
sg11
g12
sg13
VTanisha Leather Chesterfield Sofa
p3241
sg15
g325
sg17
VLiving Room
p3242
sg19
g738
sg21
V5b91939f0f659a66bf4faccc
p3243
sg23
VWayfair
p3244
sbsI393
(iasset
Asset
p3245
(dp3246
g3
I1299
sg4
(dp3247
g6
F4.83
sg7
F1.5
sg8
F2.67
ssg9
VHollywood Regency
p3248
sg11
g12
sg13
VMalone Campaign 6-Drawer Dresser - Walnut
p3249
sg15
g48
sg17
VMaster Bedroom
p3250
sg19
g50
sg21
V5b9190730f659a66bf4facb2
p3251
sg23
VWest Elm
p3252
sbsI394
(iasset
Asset
p3253
(dp3254
g3
I320
sg4
(dp3255
g6
F1.67
sg7
F1.5
sg8
F2.167
ssg9
VHollywood Regency
p3256
sg11
g12
sg13
VMalone Campaign Nightstand - Walnut
p3257
sg15
g30
sg17
VMaster Bedroom
p3258
sg19
g32
sg21
V5b918c480f659a66bf4faca7
p3259
sg23
VWest Elm
p3260
sbsI395
(iasset
Asset
p3261
(dp3262
g3
I1200
sg4
(dp3263
g6
F5.5
sg7
F7.08
sg8
F4.67
ssg9
VHollywood Regency
p3264
sg11
g12
sg13
VAlexa Bed - Black
p3265
sg15
g16
sg17
VMaster Bedroom
p3266
sg19
g20
sg21
V5b9188520f659a66bf4faca6
p3267
sg23
VWest Elm
p3268
sbsI396
(iasset
Asset
p3269
(dp3270
g3
I106
sg4
(dp3271
g6
F2.5
sg7
F0.66
sg8
F5.5
ssg9
VIndustrial
p3272
sg11
g12
sg13
VTie Grid Rack
p3273
sg15
g165
sg17
VLiving and Dining Room
p3274
sg19
g167
sg21
V5b9146d40f659a66bf4fac03
p3275
sg23
VWayfair
p3276
sbsI397
(iasset
Asset
p3277
(dp3278
g3
I1590
sg4
(dp3279
g6
I6
sg7
F2.33
sg8
F3.5
ssg9
VIndustrial
p3280
sg11
g12
sg13
VPremium Bar Cabinet
p3281
sg15
g30
sg17
VLiving and Dining Room
p3282
sg19
g2533
sg21
V5b913ff2e828905f7344f3fc
p3283
sg23
VWayfair
p3284
sbsI398
(iasset
Asset
p3285
(dp3286
g3
F211.99
sg4
(dp3287
g6
F2.91
sg7
F2.91
sg8
F1.54
ssg9
VHollywood Regency
p3288
sg11
g12
sg13
VPickett Storage Ottoman
p3289
sg15
g121
sg17
VLiving Room
p3290
sg19
VOttomans
p3291
sg21
V5b913bbcccebf615ca65fb86
p3292
sg23
VWayfair
p3293
sbsI399
(iasset
Asset
p3294
(dp3295
g3
F369.99
sg4
(dp3296
g6
F3.85
sg7
F2.33
sg8
F1.5
ssg9
VModern
p3297
sg11
g12
sg13
VDumbarton Storage Ottoman Blue Grey
p3298
sg15
g121
sg17
VLiving Room
p3299
sg19
g3291
sg21
V5b91386cccebf615ca65fb81
p3300
sg23
VWayfair
p3301
sbsI400
(iasset
Asset
p3302
(dp3303
g3
F38.98
sg4
(dp3304
g6
F0.95
sg7
F0.95
sg8
F1.167
ssg9
VCOASTAL CASUAL
p3305
sg11
g214
sg13
VCara Composite Pot Planter
p3306
sg15
g2144
sg17
VLiving Room
p3307
sg19
g2146
sg21
V5b9133c0ccebf615ca65fb7f
p3308
sg23
VWayfair
p3309
sbsI401
(iasset
Asset
p3310
(dp3311
g3
I367
sg4
(dp3312
g6
F2.5
sg7
F2.5
sg8
F3.33
ssg9
VIndustrial
p3313
sg11
g12
sg13
VGrigor Pub Table
p3314
sg15
g30
sg17
VLiving and Dining Room
p3315
sg19
g2533
sg21
V5b912f9fccebf615ca65fb79
p3316
sg23
VWayfair
p3317
sbsI402
(iasset
Asset
p3318
(dp3319
g3
F31.99
sg4
(dp3320
g6
F0.75
sg7
F0.75
sg8
F0.33
ssg9
VCOASTAL CASUAL
p3321
sg11
g214
sg13
VAlexus Floral Pot Planter
p3322
sg15
g2144
sg17
VLiving Room
p3323
sg19
g2146
sg21
V5b912f75ccebf615ca65fb78
p3324
sg23
VWayfair
p3325
sbsI403
(iasset
Asset
p3326
(dp3327
g3
F90.99
sg4
(dp3328
g6
F3.33
sg7
F0.0625
sg8
F2.167
ssg9
VCOASTAL CASUAL
p3329
sg11
g225
sg13
VSailboats at Sunrise Print
p3330
sg15
g227
sg17
VLiving Room
p3331
sg19
Vlandscape paintings
p3332
sg21
V5b912b34ccebf615ca65fb73
p3333
sg23
VJoss And Main
p3334
sbsI404
(iasset
Asset
p3335
(dp3336
g3
I122
sg4
(dp3337
g6
F1.41
sg7
F1.5
sg8
F3.91
ssg9
VIndustrial
p3338
sg11
g12
sg13
VSwivel Bar Stool
p3339
sg15
g121
sg17
VLiving and Dining Room
p3340
sg19
g1815
sg21
V5b912a55ccebf615ca65fb72
p3341
sg23
VWayfair
p3342
sbsI405
(iasset
Asset
p3343
(dp3344
g3
F91.99
sg4
(dp3345
g6
F3.33
sg7
F0.167
sg8
F2.5
ssg9
VCOASTAL CASUAL
p3346
sg11
g225
sg13
VQuiet Morning Canvas
p3347
sg15
g227
sg17
VLiving Room
p3348
sg19
g3332
sg21
V5b912a1cccebf615ca65fb71
p3349
sg23
VJoss And Main
p3350
sbsI406
(iasset
Asset
p3351
(dp3352
g3
I839
sg4
(dp3353
g6
F3.5
sg7
F3.33
sg8
F2.58
ssg9
VCOASTAL CASUAL
p3354
sg11
g12
sg13
VEliza Armchair
p3355
sg15
g121
sg17
VLiving Room
p3356
sg19
VArm Chairs
p3357
sg21
V5b912809ccebf615ca65fb70
p3358
sg23
VWayfair
p3359
sbsI407
(iasset
Asset
p3360
(dp3361
g3
I166
sg4
(dp3362
g6
F1.55
sg7
F1.55
sg8
F2.52
ssg9
VIndustrial
p3363
sg11
g12
sg13
VEmpire Bar Stool
p3364
sg15
g121
sg17
VDining Room
p3365
sg19
g1815
sg21
V5b9127d3ccebf615ca65fb6f
p3366
sg23
VWayfair
p3367
sbsI408
(iasset
Asset
p3368
(dp3369
g3
I123
sg4
(dp3370
g6
F1.66
sg7
F1.66
sg8
F1.85
ssg9
VIndustrial
p3371
sg11
g57
sg13
VHankinson Pendant
p3372
sg15
g59
sg17
VLiving and Dining Room
p3373
sg19
g779
sg21
V5b90fe3b88e4f208f93e034e
p3374
sg23
VWayfair
p3375
sbsI409
(iasset
Asset
p3376
(dp3377
g3
F70.21
sg4
(dp3378
g6
F0.85
sg7
F0.85
sg8
F1.35
ssg9
VCOASTAL CASUAL
p3379
sg11
g214
sg13
VParisian Bottle Glass Table Vase
p3380
sg15
g2194
sg17
VLiving Room
p3381
sg19
g2196
sg21
V5b90f8b588e4f208f93e0335
p3382
sg23
VWayfair
p3383
sbsI410
(iasset
Asset
p3384
(dp3385
g3
F268.99
sg4
(dp3386
g6
F2.33
sg7
F2.33
sg8
I2
ssg9
VHollywood Regency
p3387
sg11
g57
sg13
VDevana 6-Light Candle Style Chandelier
p3388
sg15
g59
sg17
VLiving Room
p3389
sg19
g61
sg21
V5b90efdc88e4f208f93e02fe
p3390
sg23
VWayfair
p3391
sbsI411
(iasset
Asset
p3392
(dp3393
g3
I10
sg4
(dp3394
g6
F4.25
sg7
F0.04
sg8
F5.25
ssg9
VMINIMALIST
p3395
sg11
g236
sg13
VCrushed Sheer curtain
p3396
sg15
g2770
sg17
VLiving Room
p3397
sg19
VWindow Curtains
p3398
sg21
V5b90ecda88e4f208f93e02fd
p3399
sg23
VWayfair
p3400
sbsI412
(iasset
Asset
p3401
(dp3402
g3
F279.99
sg4
(dp3403
g6
F2.83
sg7
F2.83
sg8
F3.125
ssg9
VHollywood Regency
p3404
sg11
g57
sg13
VAlexandra 9-Light Chandelier
p3405
sg15
g59
sg17
VLiving Room
p3406
sg19
g61
sg21
V5b90eb8788e4f208f93e02fc
p3407
sg23
VWayfair
p3408
sbsI413
(iasset
Asset
p3409
(dp3410
g3
F261.8
sg4
(dp3411
g6
F2.25
sg7
F0.104
sg8
I4
ssg9
VHollywood Regency
p3412
sg11
g214
sg13
VFarah Accent Mirror
p3413
sg15
g216
sg17
VGuest Room
p3414
sg19
g218
sg21
V5b90e80488e4f208f93e02fb
p3415
sg23
VWayfair
p3416
sbsI414
(iasset
Asset
p3417
(dp3418
g3
F162.99
sg4
(dp3419
g6
I3
sg7
F0.125
sg8
I3
ssg9
VHollywood Regency
p3420
sg11
g214
sg13
VJosephson Accent Mirror
p3421
sg15
g216
sg17
VLiving Room
p3422
sg19
g218
sg21
V5b90e38788e4f208f93e02fa
p3423
sg23
VWayfair
p3424
sbsI415
(iasset
Asset
p3425
(dp3426
g3
I670
sg4
(dp3427
g6
F5.24
sg7
F1.47
sg8
F2.42
ssg9
VMINIMALIST
p3428
sg11
g12
sg13
VDuncannon Desk
p3429
sg15
g30
sg17
VHome Office
p3430
sg19
g2312
sg21
V5b90dcc588e4f208f93e02f9
p3431
sg23
VJoss And Main
p3432
sbsI416
(iasset
Asset
p3433
(dp3434
g3
F150.99
sg4
(dp3435
g6
F1.25
sg7
F1.25
sg8
F2.33
ssg9
VHollywood Regency
p3436
sg11
g57
sg13
VCarroll 28 Standard Table Lamp
p3437
sg15
g86
sg17
VGuest Room
p3438
sg19
g149
sg21
V5b90dc5d88e4f208f93e02f8
p3439
sg23
VWayfair
p3440
sbsI417
(iasset
Asset
p3441
(dp3442
g3
F69.495
sg4
(dp3443
g6
F1.167
sg7
F1.167
sg8
I2
ssg9
VCOASTAL CASUAL
p3444
sg11
g57
sg13
VCourtney Table Lamp Marine Blue
p3445
sg15
g86
sg17
VKids Room
p3446
sg19
g149
sg21
V5b90d5ff3334755cf7ea9dd8
p3447
sg23
VWayfair
p3448
sbsI418
(iasset
Asset
p3449
(dp3450
g3
F141.99
sg4
(dp3451
g6
F1.33
sg7
F1.33
sg8
F2.42
ssg9
VMid Century
p3452
sg11
g57
sg13
VHarrisville Quatrefoil
p3453
sg15
g86
sg17
VGuest Room
p3454
sg19
g149
sg21
V5b90342c29de4d0160214976
p3455
sg23
VWayfair
p3456
sbsI419
(iasset
Asset
p3457
(dp3458
g3
F51.99
sg4
(dp3459
g6
F1.33
sg7
F1.33
sg8
F2.7
ssg9
VMid Century
p3460
sg11
g57
sg13
VCarr Hall 32.5 Table Lamp
p3461
sg15
g86
sg17
VGuest Room
p3462
sg19
g149
sg21
V5b90320629de4d0160214975
p3463
sg23
VWayfair
p3464
sbsI420
(iasset
Asset
p3465
(dp3466
g3
F50.99
sg4
(dp3467
g6
F1.33
sg7
F1.33
sg8
F2.54
ssg9
VMid Century
p3468
sg11
g57
sg13
VPortchester 30.5 Table Lamp
p3469
sg15
g86
sg17
VMaster Bedroom
p3470
sg19
g149
sg21
V5b9030a229de4d0160214973
p3471
sg23
VWayfair
p3472
sbsI421
(iasset
Asset
p3473
(dp3474
g3
F149.99
sg4
(dp3475
g6
F1.33
sg7
F1.33
sg8
F2.21
ssg9
VIndustrial
p3476
sg11
g57
sg13
VGrandin 26.25 Table Lamp
p3477
sg15
g86
sg17
VMaster Bedroom
p3478
sg19
g149
sg21
V5b902eca29de4d0160214972
p3479
sg23
VWayfair
p3480
sbsI422
(iasset
Asset
p3481
(dp3482
g3
F119.99
sg4
(dp3483
g6
F1.33
sg7
F1.33
sg8
F2.46
ssg9
VCOASTAL CASUAL
p3484
sg11
g57
sg13
VPatroclus Maybury French Blue
p3485
sg15
g86
sg17
VMaster Bedroom
p3486
sg19
g149
sg21
V5b902cdb29de4d0160214971
p3487
sg23
VWayfair
p3488
sbsI423
(iasset
Asset
p3489
(dp3490
g3
F108.47
sg4
(dp3491
g6
F1.33
sg7
F1.33
sg8
F2.45
ssg9
VMid Century
p3492
sg11
g57
sg13
VPatroclus Maybury 29.5 Table Lamp
p3493
sg15
g86
sg17
VMaster Bedroom
p3494
sg19
g149
sg21
V5b902bac29de4d0160214970
p3495
sg23
VWayfair
p3496
sbsI424
(iasset
Asset
p3497
(dp3498
g3
F94.99
sg4
(dp3499
g6
F1.167
sg7
F1.167
sg8
F1.79
ssg9
VCOASTAL CASUAL
p3500
sg11
g57
sg13
VRoanoke Table Lamp
p3501
sg15
g86
sg17
VMaster Bedroom
p3502
sg19
g149
sg21
V5b90299b29de4d016021496f
p3503
sg23
VWayfair
p3504
sbsI425
(iasset
Asset
p3505
(dp3506
g3
F133.99
sg4
(dp3507
g6
F1.33
sg7
F1.33
sg8
F2.22
ssg9
VTraditional
p3508
sg11
g57
sg13
VRyan Glass Table Lamp
p3509
sg15
g86
sg17
VLiving Room
p3510
sg19
g149
sg21
V5b90287a29de4d016021496e
p3511
sg23
VWayfair
p3512
sbsI426
(iasset
Asset
p3513
(dp3514
g3
F233.99
sg4
(dp3515
g6
F1.04
sg7
F1.42
sg8
F2.625
ssg9
VCONTEMPORARY
p3516
sg11
g57
sg13
VWagner Table Lamp
p3517
sg15
g86
sg17
VLiving Room
p3518
sg19
g149
sg21
V5b90269e29de4d016021496d
p3519
sg23
VWayfair
p3520
sbsI427
(iasset
Asset
p3521
(dp3522
g3
F82.99
sg4
(dp3523
g6
I1
sg7
I1
sg8
F1.416
ssg9
VCOASTAL CASUAL
p3524
sg11
g57
sg13
VLa Merced 17 Table Lamp
p3525
sg15
g86
sg17
VLiving Room
p3526
sg19
g149
sg21
V5b90250a29de4d016021496c
p3527
sg23
VWayfair
p3528
sbsI428
(iasset
Asset
p3529
(dp3530
g3
F112.99
sg4
(dp3531
g6
F1.73
sg7
F1.73
sg8
F1.9
ssg9
VMid Century
p3532
sg11
g12
sg13
VAugust Mid-Back Desk Chair-Black
p3533
sg15
g121
sg17
VHome Office
p3534
sg19
g2321
sg21
V5b90227529de4d016021496b
p3535
sg23
VWayfair
p3536
sbsI429
(iasset
Asset
p3537
(dp3538
g3
F112.99
sg4
(dp3539
g6
F1.73
sg7
F1.73
sg8
F1.9
ssg9
VCOASTAL CASUAL
p3540
sg11
g12
sg13
VAugust Mid-Back Desk Chair
p3541
sg15
g121
sg17
VLiving Room
p3542
sg19
g2321
sg21
V5b90218329de4d0160214960
p3543
sg23
VWayfair
p3544
sbsI430
(iasset
Asset
p3545
(dp3546
g3
F165.99
sg4
(dp3547
g6
F3.67
sg7
F1.83
sg8
F1.67
ssg9
VCOASTAL CASUAL
p3548
sg11
g12
sg13
VSoule Coffee Table
p3549
sg15
g30
sg17
VLiving Room
p3550
sg19
g140
sg21
V5b901edf29de4d0160214952
p3551
sg23
VWayfair
p3552
sbsI431
(iasset
Asset
p3553
(dp3554
g3
F654.72
sg4
(dp3555
g6
F3.33
sg7
F3.5
sg8
I3
ssg9
VCOASTAL CASUAL
p3556
sg11
g12
sg13
VLandry Armchair
p3557
sg15
g121
sg17
VLiving Room
p3558
sg19
g3357
sg21
V5b90174d092a6f5adbeae92e
p3559
sg23
VWayfair
p3560
sbsI432
(iasset
Asset
p3561
(dp3562
g3
F639.99
sg4
(dp3563
g6
I4
sg7
F1.17
sg8
F3.33
ssg9
VCOASTAL CASUAL
p3564
sg11
VAppliances
p3565
sg13
VChesterbrook Electric Fireplace
p3566
sg15
VRoom Heaters
p3567
sg17
VLiving Room
p3568
sg19
VFireplaces
p3569
sg21
V5b8fb7398361844a8682eca2
p3570
sg23
VJoss And Main
p3571
sbsI433
(iasset
Asset
p3572
(dp3573
g3
I36
sg4
(dp3574
g6
F2.66
sg7
F0.12
sg8
F2.66
ssg9
VModern
p3575
sg11
g225
sg13
VQuiet Moments Canvas
p3576
sg15
g494
sg17
VLiving Room
p3577
sg19
g644
sg21
V5b8f98bc509068058963e287
p3578
sg23
VWayfair
p3579
sbsI434
(iasset
Asset
p3580
(dp3581
g3
I78
sg4
(dp3582
g6
F2.5
sg7
F0.12
sg8
F2.5
ssg9
VMINIMALIST
p3583
sg11
g225
sg13
VMeeting Horses Canvas
p3584
sg15
g494
sg17
VLiving Room
p3585
sg19
g653
sg21
V5b8f964b509068058963e26a
p3586
sg23
VWayfair
p3587
sbsI435
(iasset
Asset
p3588
(dp3589
g3
I45
sg4
(dp3590
g6
F1.66
sg7
F0.08
sg8
F1.66
ssg9
VCONTEMPORARY
p3591
sg11
g225
sg13
VMandala Graphic Art
p3592
sg15
g494
sg17
VLiving Room
p3593
sg19
g496
sg21
V5b8f930e509068058963e268
p3594
sg23
VWayfair
p3595
sbsI436
(iasset
Asset
p3596
(dp3597
g3
F59.99
sg4
(dp3598
g6
F1.7
sg7
F0.2
sg8
F1.7
ssg9
VCOASTAL CASUAL
p3599
sg11
g236
sg13
VSudie Anchor Embroidered
p3600
sg15
g238
sg17
VKids Room
p3601
sg19
g505
sg21
V5b8ec245df80da76571cd5f3
p3602
sg23
VWayfair
p3603
sbsI437
(iasset
Asset
p3604
(dp3605
g3
F52.87
sg4
(dp3606
g6
I2
sg7
F0.01
sg8
I2
ssg9
VCOASTAL CASUAL
p3607
sg11
g225
sg13
VDecorative Wood Ship Wheel
p3608
sg15
g2236
sg17
VKids Room
p3609
sg19
g2238
sg21
V5b8ebc2edf80da76571cd5e4
p3610
sg23
VWayfair
p3611
sbsI438
(iasset
Asset
p3612
(dp3613
g3
F79.99
sg4
(dp3614
g6
I3
sg7
F0.17
sg8
I2
ssg9
VCOASTAL CASUAL
p3615
sg11
g225
sg13
VRounding the Mark Painting
p3616
sg15
g227
sg17
VKids Room
p3617
sg19
Vstill life paintings
p3618
sg21
V5b8eb4f8df80da76571cd5ce
p3619
sg23
VJoss And Main
p3620
sbsI439
(iasset
Asset
p3621
(dp3622
g3
I240
sg4
(dp3623
g6
F3.9
sg7
F0.95
sg8
F6.06
ssg9
VMINIMALIST
p3624
sg11
g12
sg13
VStandard Bookcase
p3625
sg15
g165
sg17
VHome Office
p3626
sg19
g267
sg21
V5b8e73f5b991e2171b205cec
p3627
sg23
VJoss And Main
p3628
sbsI440
(iasset
Asset
p3629
(dp3630
g3
F209.99
sg4
(dp3631
g6
I5
sg7
F7.41
sg8
F0.04
ssg9
VTRANSITIONAL
p3632
sg11
g236
sg13
VBerau Anchor Rug
p3633
sg15
g403
sg17
VKids Room
p3634
sg19
g662
sg21
V5b8e70e8b991e2171b205ce2
p3635
sg23
VWayfair
p3636
sbsI441
(iasset
Asset
p3637
(dp3638
g3
F519.99
sg4
(dp3639
g6
F3.25
sg7
F3.33
sg8
F2.58
ssg9
VModern
p3640
sg11
g12
sg13
VNewton Armchair
p3641
sg15
g121
sg17
VLiving Room
p3642
sg19
g3357
sg21
V5b8e6ddd89da3811861ee7e3
p3643
sg23
VWayfair
p3644
sbsI442
(iasset
Asset
p3645
(dp3646
g3
F326.24
sg4
(dp3647
g6
F4.45
sg7
F2.52
sg8
F2.96
ssg9
VModern
p3648
sg11
g12
sg13
VBabyletto Lolly White & Natural
p3649
sg15
g16
sg17
VKids Room
p3650
sg19
VSingle Beds
p3651
sg21
V5b8e68f204ab6b0999f3f0e9
p3652
sg23
VCrate And Barrel
p3653
sbsI443
(iasset
Asset
p3654
(dp3655
g3
I134
sg4
(dp3656
g6
F2.04
sg7
F1.97
sg8
F2.87
ssg9
VCONTEMPORARY
p3657
sg11
g12
sg13
VAliya Desk Chair
p3658
sg15
g121
sg17
VHome Office
p3659
sg19
g2321
sg21
V5b8e6517649f8802bee4a6ec
p3660
sg23
VJoss And Main
p3661
sbsI444
(iasset
Asset
p3662
(dp3663
g3
F409.99
sg4
(dp3664
g6
F2.79
sg7
F2.83
sg8
F2.96
ssg9
VTRANSITIONAL
p3665
sg11
g12
sg13
VBrougham Wingback Chair
p3666
sg15
g121
sg17
VLiving Room
p3667
sg19
VWing Chairs
p3668
sg21
V5b8e4da2beec1e2e2368fe3a
p3669
sg23
VWayfair
p3670
sbsI445
(iasset
Asset
p3671
(dp3672
g3
I64
sg4
(dp3673
g6
F3.41
sg7
F0.16
sg8
F2.91
ssg9
VCONTEMPORARY
p3674
sg11
g214
sg13
VMcnichols Mirror
p3675
sg15
g216
sg17
VMaster Bedroom
p3676
sg19
g218
sg21
V5b8e394ebeec1e2e2368fdcd
p3677
sg23
VWayfair
p3678
sbsI446
(iasset
Asset
p3679
(dp3680
g3
I105
sg4
(dp3681
g6
F3.93
sg7
F0.75
sg8
F2.14
ssg9
VCONTEMPORARY
p3682
sg11
g12
sg13
VAbbottsmoor Console Table
p3683
sg15
g30
sg17
VEntryway
p3684
sg19
g105
sg21
V5b8e36a5beec1e2e2368fdb4
p3685
sg23
VWayfair
p3686
sbsI447
(iasset
Asset
p3687
(dp3688
g3
F179.29
sg4
(dp3689
g6
F1.92
sg7
F2.23
sg8
F2.91
ssg9
VMid Century
p3690
sg11
g12
sg13
VEckard Office Chair
p3691
sg15
g121
sg17
VHome Office
p3692
sg19
g2321
sg21
V5b8d2c0dbeec1e2e2368fc62
p3693
sg23
VWayfair
p3694
sbsI448
(iasset
Asset
p3695
(dp3696
g3
I349
sg4
(dp3697
g6
F4.67
sg7
F2.33
sg8
F2.5
ssg9
VModern
p3698
sg11
g12
sg13
VCross-Base Desk - Polished Nickel
p3699
sg15
g30
sg17
VHome Office
p3700
sg19
g2312
sg21
V5b8d1c3bbeec1e2e2368fb40
p3701
sg23
VWest Elm
p3702
sbsI449
(iasset
Asset
p3703
(dp3704
g3
F12.285
sg4
(dp3705
g6
F0.46
sg7
F0.46
sg8
F0.92
ssg9
VModern
p3706
sg11
g57
sg13
VAriana Table Lamp Black
p3707
sg15
g86
sg17
VMaster Bedroom
p3708
sg19
g149
sg21
V5b8cfaab41f99b1f342f54c1
p3709
sg23
VWayfair
p3710
sbsI450
(iasset
Asset
p3711
(dp3712
g3
I19
sg4
(dp3713
g6
F0.5
sg7
F0.5
sg8
I6
ssg9
VCONTEMPORARY
p3714
sg11
g57
sg13
VAluminium Hanging Light (short)
p3715
sg15
g59
sg17
VMaster Bedroom
p3716
sg19
g779
sg21
V5b8cd25041f99b1f342f5463
p3717
sg23
VPepperfry
p3718
sbsI451
(iasset
Asset
p3719
(dp3720
g3
I33
sg4
(dp3721
g6
F1.66
sg7
F0.33
sg8
F1.66
ssg9
VCONTEMPORARY
p3722
sg11
g236
sg13
VBreuer Throw Pillow
p3723
sg15
g238
sg17
VLiving Room
p3724
sg19
g505
sg21
V5b8a74411fc70034b7847a57
p3725
sg23
VWayfair
p3726
sbsI452
(iasset
Asset
p3727
(dp3728
g3
I19
sg4
(dp3729
g6
F0.5
sg7
F0.5
sg8
I5
ssg9
VCONTEMPORARY
p3730
sg11
g57
sg13
VAluminium Hanging Light
p3731
sg15
g59
sg17
VMaster Bedroom
p3732
sg19
g779
sg21
V5b8a6d131fc70034b7847a56
p3733
sg23
VPepperfry
p3734
sbsI453
(iasset
Asset
p3735
(dp3736
g3
I60
sg4
(dp3737
g6
F7.5
sg7
F9.5
sg8
F0.05
ssg9
VModern
p3738
sg11
g236
sg13
VHeilman Rug
p3739
sg15
g403
sg17
VLiving Room
p3740
sg19
g662
sg21
V5b8a63c01fc70034b7847a55
p3741
sg23
VWayfair
p3742
sbsI454
(iasset
Asset
p3743
(dp3744
g3
I64
sg4
(dp3745
g6
I8
sg7
I10
sg8
F0.05
ssg9
VModern
p3746
sg11
g236
sg13
VChenango Blue Rug
p3747
sg15
g403
sg17
VLiving Room
p3748
sg19
g662
sg21
V5b8a61851fc70034b7847a54
p3749
sg23
VWayfair
p3750
sbsI455
(iasset
Asset
p3751
(dp3752
g3
I185
sg4
(dp3753
g6
F2.41
sg7
F2.41
sg8
F1.54
ssg9
VCONTEMPORARY
p3754
sg11
g12
sg13
VCrane Cocktail Ottoman
p3755
sg15
g121
sg17
VLiving Room
p3756
sg19
g3291
sg21
V5b8a5d511fc70034b7847a53
p3757
sg23
VWayfair
p3758
sbsI456
(iasset
Asset
p3759
(dp3760
g3
F51.98
sg4
(dp3761
g6
F1.4
sg7
F0.5
sg8
F1.4
ssg9
VCONTEMPORARY
p3762
sg11
g236
sg13
VThrow Pillow
p3763
sg15
g238
sg17
VLiving Room
p3764
sg19
g240
sg21
V5b891dcae2ac545884ee256e
p3765
sg23
VWayfair
p3766
sbsI457
(iasset
Asset
p3767
(dp3768
g3
I26
sg4
(dp3769
g6
F1.5
sg7
F0.08
sg8
F1.5
ssg9
VCONTEMPORARY
p3770
sg11
g236
sg13
VJustus pillow cover
p3771
sg15
g238
sg17
VLiving Room
p3772
sg19
g679
sg21
V5b891972e2ac545884ee256d
p3773
sg23
VWayfair
p3774
sbsI458
(iasset
Asset
p3775
(dp3776
g3
I18
sg4
(dp3777
g6
F7.83
sg7
I10
sg8
F0.05
ssg9
VCONTEMPORARY
p3778
sg11
g236
sg13
VPamplin Gray Area Rug
p3779
sg15
g403
sg17
VLiving Room
p3780
sg19
g662
sg21
V5b88e7017b64e5527c84344c
p3781
sg23
VWayfair
p3782
sbsI459
(iasset
Asset
p3783
(dp3784
g3
I146
sg4
(dp3785
g6
F1.57
sg7
F0.28
sg8
I7
ssg9
VCONTEMPORARY
p3786
sg11
g57
sg13
VSteel Tree Floor Lamp
p3787
sg15
g86
sg17
VLiving Room
p3788
sg19
g88
sg21
V5b88e28f7b64e5527c84343a
p3789
sg23
VWayfair
p3790
sbsI460
(iasset
Asset
p3791
(dp3792
g3
I111
sg4
(dp3793
g6
F1.01
sg7
F1.01
sg8
F1.44
ssg9
VCONTEMPORARY
p3794
sg11
g12
sg13
VDurwood End Table
p3795
sg15
g30
sg17
VLiving Room
p3796
sg19
g78
sg21
V5b87dfbadaa99f3e989bb278
p3797
sg23
VWayfair
p3798
sbsI461
(iasset
Asset
p3799
(dp3800
g3
I448
sg4
(dp3801
g6
F2.91
sg7
F2.91
sg8
I1
ssg9
VCONTEMPORARY
p3802
sg11
g12
sg13
VNorridge Coffee Table
p3803
sg15
g30
sg17
VLiving Room
p3804
sg19
g140
sg21
V5b87d91adaa99f3e989bb277
p3805
sg23
VWayfair
p3806
sbsI462
(iasset
Asset
p3807
(dp3808
g3
I506
sg4
(dp3809
g6
F2.81
sg7
F2.5
sg8
F3.58
ssg9
VCONTEMPORARY
p3810
sg11
g12
sg13
VSwivel Balloon Chair
p3811
sg15
g121
sg17
VLiving Room
p3812
sg19
g361
sg21
V5b87c70edaa99f3e989bb26a
p3813
sg23
VWayfair
p3814
sbsI463
(iasset
Asset
p3815
(dp3816
g3
I3595
sg4
(dp3817
g6
F3.33
sg7
F1.66
sg8
F7.08
ssg9
VMINIMALIST
p3818
sg11
g12
sg13
VGEOMETRIC DOUBLE-DOOR CABINET
p3819
sg15
g165
sg17
VDining Room
p3820
sg19
g2492
sg21
V5b861bf6d2024470fd8fa58b
p3821
sg23
VRestoration Hardware
p3822
sbsI464
(iasset
Asset
p3823
(dp3824
g3
I117
sg4
(dp3825
g6
F1.33
sg7
F3.66
sg8
F1.58
ssg9
VMINIMALIST
p3826
sg11
g12
sg13
VCrafton Wood Bench
p3827
sg15
g121
sg17
VDining Room
p3828
sg19
g370
sg21
V5b853f73d2024470fd8fa542
p3829
sg23
VWayfair
p3830
sbsI465
(iasset
Asset
p3831
(dp3832
g3
I218
sg4
(dp3833
g6
F1.5
sg7
F1.73
sg8
F2.67
ssg9
VMINIMALIST
p3834
sg11
g12
sg13
VHolly Wire Dining Chair (white)
p3835
sg15
g121
sg17
VDining Room
p3836
sg19
g123
sg21
V5b85366ad2024470fd8fa4e7
p3837
sg23
VWayfair
p3838
sbsI466
(iasset
Asset
p3839
(dp3840
g3
I271
sg4
(dp3841
g6
I5
sg7
I3
sg8
F2.5
ssg9
VMINIMALIST
p3842
sg11
g12
sg13
VDerouen Dining Table
p3843
sg15
g307
sg17
VDining Room
p3844
sg19
g379
sg21
V5b853416d2024470fd8fa4e0
p3845
sg23
VWayfair
p3846
sbsI467
(iasset
Asset
p3847
(dp3848
g3
F11.99
sg4
(dp3849
g6
F1.6
sg7
F0.04
sg8
F1.6
ssg9
VCONTEMPORARY
p3850
sg11
g236
sg13
VArber Pleated Throw Pillow Cover
p3851
sg15
g238
sg17
VLiving Room
p3852
sg19
g679
sg21
V5b8530dad2024470fd8fa4cd
p3853
sg23
VWayfair
p3854
sbsI468
(iasset
Asset
p3855
(dp3856
g3
I218
sg4
(dp3857
g6
F1.52
sg7
F1.73
sg8
F2.6
ssg9
VMINIMALIST
p3858
sg11
g12
sg13
VHolly Wire Dining Chair
p3859
sg15
g121
sg17
VDining Room
p3860
sg19
g123
sg21
V5b8508f2d2024470fd8fa40b
p3861
sg23
VWayfair
p3862
sbs.