(dp0
VTables
p1
(lp2
(dp3
Vposition
p4
(dp5
Vy
p6
F0.09344709
sVx
p7
F0.7380692
sVz
p8
F2.066705
ssVrotation
p9
(dp10
Vy
p11
I180
sVx
p12
I0
sVz
p13
I0
ssVscale
p14
(dp15
Vy
p16
I1
sVx
p17
I1
sVz
p18
I1
ssa(dp19
Vposition
p20
(dp21
Vy
p22
F0.09344709
sVx
p23
F-1.941176
sVz
p24
F2.066705
ssVrotation
p25
(dp26
Vy
p27
I180
sVx
p28
I0
sVz
p29
I0
ssVscale
p30
(dp31
Vy
p32
I1
sVx
p33
I1
sVz
p34
I1
ssa(dp35
Vposition
p36
(dp37
Vy
p38
F0.1087412
sVx
p39
F-0.7511566
sVz
p40
F-2.049916
ssVrotation
p41
(dp42
Vy
p43
I0
sVx
p44
I0
sVz
p45
I0
ssVscale
p46
(dp47
Vy
p48
I1
sVx
p49
I1
sVz
p50
I1
ssasVCustomers Products
p51
(lp52
(dp53
Vposition
p54
(dp55
Vy
p56
F1.623197
sVx
p57
F-0.8652511
sVz
p58
F-2.159467
ssVrotation
p59
(dp60
Vy
p61
I0
sVx
p62
I0
sVz
p63
I0
ssVscale
p64
(dp65
Vy
p66
I1
sVx
p67
I1
sVz
p68
I1
ssa(dp69
Vposition
p70
(dp71
Vy
p72
F0.09344709
sVx
p73
F-2.12546
sVz
p74
F1.424076
ssVrotation
p75
(dp76
Vy
p77
I179
sVx
p78
I0
sVz
p79
I0
ssVscale
p80
(dp81
Vy
p82
I1
sVx
p83
I1
sVz
p84
I1
ssasVpaintings
p85
(lp86
(dp87
Vposition
p88
(dp89
Vy
p90
F1.577978
sVx
p91
F-0.160831
sVz
p92
F2.270128
ssVrotation
p93
(dp94
Vy
p95
I180
sVx
p96
I0
sVz
p97
I0
ssVscale
p98
(dp99
Vy
p100
I1
sVx
p101
I1
sVz
p102
I1
ssasVCarpets & Rugs
p103
(lp104
(dp105
Vposition
p106
(dp107
Vy
p108
F0.09344709
sVx
p109
F-0.6304166
sVz
p110
F-0.4257306
ssVrotation
p111
(dp112
Vy
p113
I0
sVx
p114
I0
sVz
p115
I0
ssVscale
p116
(dp117
Vy
p118
I1
sVx
p119
I1
sVz
p120
I1
ssasVCushions
p121
(lp122
(dp123
Vposition
p124
(dp125
Vy
p126
F0.6319304
sVx
p127
F-0.8421931
sVz
p128
F1.829014
ssVrotation
p129
(dp130
Vy
p131
I0
sVx
p132
I0
sVz
p133
I0
ssVscale
p134
(dp135
Vy
p136
I1
sVx
p137
I1
sVz
p138
I1
ssa(dp139
Vposition
p140
(dp141
Vy
p142
F0.6017995
sVx
p143
F-0.5841613
sVz
p144
F1.978956
ssVrotation
p145
(dp146
Vy
p147
I0
sVx
p148
I0
sVz
p149
I0
ssVscale
p150
(dp151
Vy
p152
I1
sVx
p153
I1
sVz
p154
I1
ssasVpots & planters
p155
(lp156
(dp157
Vposition
p158
(dp159
Vy
p160
F0.1934471
sVx
p161
F-2.246994
sVz
p162
F-1.17612
ssVrotation
p163
(dp164
Vy
p165
I0
sVx
p166
I0
sVz
p167
I0
ssVscale
p168
(dp169
Vy
p170
I1
sVx
p171
I1
sVz
p172
I1
ssa(dp173
Vposition
p174
(dp175
Vy
p176
F0.09344709
sVx
p177
F-2.138103
sVz
p178
F0.87058
ssVrotation
p179
(dp180
Vy
p181
I0
sVx
p182
I0
sVz
p183
I0
ssVscale
p184
(dp185
Vy
p186
I1
sVx
p187
I1
sVz
p188
I1
ssasVWardrobes
p189
(lp190
(dp191
Vposition
p192
(dp193
Vy
p194
F0.09346133
sVx
p195
F0.701049
sVz
p196
F-2.02024
ssVrotation
p197
(dp198
Vy
p199
I90
sVx
p200
I0
sVz
p201
I0
ssVscale
p202
(dp203
Vy
p204
I1
sVx
p205
I1
sVz
p206
I1
ssasVProps
p207
(lp208
(dp209
Vposition
p210
(dp211
Vy
p212
F0.09344709
sVx
p213
F-2.547143
sVz
p214
F-0.2288757
ssVrotation
p215
(dp216
Vy
p217
I90
sVx
p218
I0
sVz
p219
I0
ssVscale
p220
(dp221
Vy
p222
I1
sVx
p223
I1
sVz
p224
I1
ssasVChairs
p225
(lp226
(dp227
Vposition
p228
(dp229
Vy
p230
F0.09344709
sVx
p231
F-1.87747
sVz
p232
F-1.661269
ssVrotation
p233
(dp234
Vy
p235
I41
sVx
p236
I0
sVz
p237
I0
ssVscale
p238
(dp239
Vy
p240
I1
sVx
p241
I1
sVz
p242
I1
ssa(dp243
Vposition
p244
(dp245
Vy
p246
F0.09344715
sVx
p247
F1.80136
sVz
p248
F-1.593917
ssVrotation
p249
(dp250
Vy
p251
I314
sVx
p252
I0
sVz
p253
I0
ssVscale
p254
(dp255
Vy
p256
I1
sVx
p257
I1
sVz
p258
I1
ssasVDisplay Units
p259
(lp260
(dp261
Vposition
p262
(dp263
Vy
p264
F0.09343183
sVx
p265
F2.374039
sVz
p266
F-0.7055662
ssVrotation
p267
(dp268
Vy
p269
I269
sVx
p270
I0
sVz
p271
I0
ssVscale
p272
(dp273
Vy
p274
I1
sVx
p275
I1
sVz
p276
I1
ssasVBeds
p277
(lp278
(dp279
Vposition
p280
(dp281
Vy
p282
F0.09344709
sVx
p283
F-0.6396143
sVz
p284
F1.081157
ssVrotation
p285
(dp286
Vy
p287
I180
sVx
p288
I0
sVz
p289
I0
ssVscale
p290
(dp291
Vy
p292
I1
sVx
p293
I1
sVz
p294
I1
ssasVLights
p295
(lp296
(dp297
Vposition
p298
(dp299
Vy
p300
F1.714105
sVx
p301
F0.4544991
sVz
p302
F1.48963
ssVrotation
p303
(dp304
Vy
p305
I0
sVx
p306
I0
sVz
p307
I0
ssVscale
p308
(dp309
Vy
p310
I1
sVx
p311
I1
sVz
p312
I1
ssa(dp313
Vposition
p314
(dp315
Vy
p316
F1.714105
sVx
p317
F-1.76613
sVz
p318
F1.376158
ssVrotation
p319
(dp320
Vy
p321
I0
sVx
p322
I0
sVz
p323
I0
ssVscale
p324
(dp325
Vy
p326
I1
sVx
p327
I1
sVz
p328
I1
ssasVDrawers
p329
(lp330
(dp331
Vposition
p332
(dp333
Vy
p334
F0.09344709
sVx
p335
F2.377692
sVz
p336
F0.6936802
ssVrotation
p337
(dp338
Vy
p339
I269
sVx
p340
I0
sVz
p341
I0
ssVscale
p342
(dp343
Vy
p344
I1
sVx
p345
I1
sVz
p346
I1
ssasVMirrors
p347
(lp348
(dp349
Vposition
p350
(dp351
Vy
p352
F1.042884
sVx
p353
F2.594337
sVz
p354
F0.6811015
ssVrotation
p355
(dp356
Vy
p357
I90
sVx
p358
I0
sVz
p359
I0
ssVscale
p360
(dp361
Vy
p362
I1
sVx
p363
I1
sVz
p364
I1
ssasVLamps
p365
(lp366
(dp367
Vposition
p368
(dp369
Vy
p370
F0.64275
sVx
p371
F0.7383921
sVz
p372
F2.105379
ssVrotation
p373
(dp374
Vy
p375
I0
sVx
p376
I0
sVz
p377
I0
ssVscale
p378
(dp379
Vy
p380
I1
sVx
p381
I1
sVz
p382
I1
ssa(dp383
Vposition
p384
(dp385
Vy
p386
F0.646966
sVx
p387
F-1.953016
sVz
p388
F2.105379
ssVrotation
p389
(dp390
Vy
p391
I0
sVx
p392
I0
sVz
p393
I0
ssVscale
p394
(dp395
Vy
p396
I1
sVx
p397
I1
sVz
p398
I1
ssa(dp399
Vposition
p400
(dp401
Vy
p402
F0.8363795
sVx
p403
F-0.2424975
sVz
p404
F-2.12117
ssVrotation
p405
(dp406
Vy
p407
I0
sVx
p408
I0
sVz
p409
I0
ssVscale
p410
(dp411
Vy
p412
I1
sVx
p413
I1
sVz
p414
I1
ssasVCurios and showpieces
p415
(lp416
(dp417
Vposition
p418
(dp419
Vy
p420
F0.844685
sVx
p421
F-0.9303461
sVz
p422
F-2.121997
ssVrotation
p423
(dp424
Vy
p425
I0
sVx
p426
I0
sVz
p427
I0
ssVscale
p428
(dp429
Vy
p430
I1
sVx
p431
I1
sVz
p432
I1
ssa(dp433
Vposition
p434
(dp435
Vy
p436
F2.189971
sVx
p437
F2.476324
sVz
p438
F-1.751954
ssVrotation
p439
(dp440
Vy
p441
I269
sVx
p442
I0
sVz
p443
I0
ssVscale
p444
(dp445
Vy
p446
I1
sVx
p447
I1
sVz
p448
I1
ssasVVases
p449
(lp450
(dp451
Vposition
p452
(dp453
Vy
p454
F0.9239981
sVx
p455
F-1.174347
sVz
p456
F-2.055367
ssVrotation
p457
(dp458
Vy
p459
I0
sVx
p460
I0
sVz
p461
I0
ssVscale
p462
(dp463
Vy
p464
I1
sVx
p465
I1
sVz
p466
I1
ssasVPicture Frames
p467
(lp468
(dp469
Vposition
p470
(dp471
Vy
p472
F1.362206
sVx
p473
F-0.9615099
sVz
p474
F2.270128
ssVrotation
p475
(dp476
Vy
p477
I180
sVx
p478
I0
sVz
p479
I0
ssVscale
p480
(dp481
Vy
p482
I1
sVx
p483
I1
sVz
p484
I1
ssas.