(dp0
VTables
p1
(lp2
(dp3
Vposition
p4
(dp5
Vy
p6
F0.09344708
sVx
p7
F0.7380692
sVz
p8
F2.066705
ssVrotation
p9
(dp10
g6
I180
sg7
I0
sg8
I0
ssVscale
p11
(dp12
g6
I1
sg7
I1
sg8
I1
ssa(dp13
Vposition
p14
(dp15
g6
F0.09344708
sg7
F-1.941176
sg8
F2.066705
ssVrotation
p16
(dp17
g6
I180
sg7
I0
sg8
I0
ssVscale
p18
(dp19
g6
I1
sg7
I1
sg8
I1
ssa(dp20
Vposition
p21
(dp22
g6
F0.09344708
sg7
F-0.7511566
sg8
F-2.049916
ssVrotation
p23
(dp24
g6
I0
sg7
I0
sg8
I0
ssVscale
p25
(dp26
g6
I1
sg7
I1
sg8
I1
ssasVCustomers Products
p27
(lp28
(dp29
Vposition
p30
(dp31
g6
F1.623197
sg7
F-0.8652511
sg8
F-2.159467
ssVrotation
p32
(dp33
g6
I0
sg7
I0
sg8
I0
ssVscale
p34
(dp35
g6
I1
sg7
I1
sg8
I1
ssa(dp36
Vposition
p37
(dp38
g6
F0.09344709
sg7
F-2.12546
sg8
F1.424076
ssVrotation
p39
(dp40
g6
I179
sg7
I0
sg8
I0
ssVscale
p41
(dp42
g6
I1
sg7
I1
sg8
I1
ssasVpaintings
p43
(lp44
(dp45
Vposition
p46
(dp47
g6
F1.577978
sg7
F-0.160831
sg8
F2.270128
ssVrotation
p48
(dp49
g6
I180
sg7
I0
sg8
I0
ssVscale
p50
(dp51
g6
I1
sg7
I1
sg8
I1
ssasVDrawers
p52
(lp53
(dp54
Vposition
p55
(dp56
g6
F0.09344709
sg7
F2.376544
sg8
F0.6936802
ssVrotation
p57
(dp58
g6
I269
sg7
I0
sg8
I0
ssVscale
p59
(dp60
g6
I1
sg7
I1
sg8
I1
ssasVCushions
p61
(lp62
(dp63
Vposition
p64
(dp65
g6
F0.6319304
sg7
F-1.058497
sg8
F1.892479
ssVrotation
p66
(dp67
g6
I0
sg7
I0
sg8
I0
ssVscale
p68
(dp69
g6
I1
sg7
I1
sg8
I1
ssa(dp70
Vposition
p71
(dp72
g6
F0.6017995
sg7
F-0.8155839
sg8
F2.028721
ssVrotation
p73
(dp74
g6
I0
sg7
I0
sg8
I0
ssVscale
p75
(dp76
g6
I1
sg7
I1
sg8
I1
ssa(dp77
Vposition
p78
(dp79
g6
F0.6849431
sg7
F-0.2228252
sg8
F1.869849
ssVrotation
p80
(dp81
g6
I0
sg7
I0
sg8
I0
ssVscale
p82
(dp83
g6
I1
sg7
I1
sg8
I1
ssa(dp84
Vposition
p85
(dp86
g6
F0.6920569
sg7
F-0.442001
sg8
F1.997219
ssVrotation
p87
(dp88
g6
I0
sg7
I0
sg8
I0
ssVscale
p89
(dp90
g6
I1
sg7
I1
sg8
I1
ssasVpots & planters
p91
(lp92
(dp93
Vposition
p94
(dp95
g6
F0.1934471
sg7
F-2.246994
sg8
F-1.17612
ssVrotation
p96
(dp97
g6
I0
sg7
I0
sg8
I0
ssVscale
p98
(dp99
g6
I1
sg7
I1
sg8
I1
ssa(dp100
Vposition
p101
(dp102
g6
F0.09344708
sg7
F-2.138103
sg8
F0.87058
ssVrotation
p103
(dp104
g6
I0
sg7
I0
sg8
I0
ssVscale
p105
(dp106
g6
I1
sg7
I1
sg8
I1
ssasVWardrobes
p107
(lp108
(dp109
Vposition
p110
(dp111
g6
F0.09346133
sg7
F0.701049
sg8
F-2.02024
ssVrotation
p112
(dp113
g6
I90
sg7
I0
sg8
I0
ssVscale
p114
(dp115
g6
I1
sg7
I1
sg8
I1
ssasVProps
p116
(lp117
(dp118
Vposition
p119
(dp120
g6
F0.09344709
sg7
F-2.547143
sg8
F-0.2288757
ssVrotation
p121
(dp122
g6
I90
sg7
I0
sg8
I0
ssVscale
p123
(dp124
g6
I1
sg7
I1
sg8
I1
ssasVChairs
p125
(lp126
(dp127
Vposition
p128
(dp129
g6
F0.09344709
sg7
F-1.884978
sg8
F-1.661268
ssVrotation
p130
(dp131
g6
I41
sg7
I0
sg8
I0
ssVscale
p132
(dp133
g6
I1
sg7
I1
sg8
I1
ssa(dp134
Vposition
p135
(dp136
g6
F0.09344715
sg7
F1.785056
sg8
F-1.631147
ssVrotation
p137
(dp138
g6
I320
sg7
I0
sg8
I0
ssVscale
p139
(dp140
g6
I1
sg7
I1
sg8
I1
ssa(dp141
Vposition
p142
(dp143
g6
F0.09344709
sg7
F-0.7189993
sg8
F-1.573764
ssVrotation
p144
(dp145
g6
I180
sg7
I0
sg8
I0
ssVscale
p146
(dp147
g6
I1
sg7
I1
sg8
I1
ssasVBeds
p148
(lp149
(dp150
Vposition
p151
(dp152
g6
F0.09344708
sg7
F-0.6170446
sg8
F1.081158
ssVrotation
p153
(dp154
g6
I180
sg7
I0
sg8
I0
ssVscale
p155
(dp156
g6
I1
sg7
I1
sg8
I1
ssasVLights
p157
(lp158
(dp159
Vposition
p160
(dp161
g6
F1.714105
sg7
F0.4544991
sg8
F1.48963
ssVrotation
p162
(dp163
g6
I0
sg7
I0
sg8
I0
ssVscale
p164
(dp165
g6
I1
sg7
I1
sg8
I1
ssa(dp166
Vposition
p167
(dp168
g6
F1.714105
sg7
F-1.76613
sg8
F1.376158
ssVrotation
p169
(dp170
g6
I0
sg7
I0
sg8
I0
ssVscale
p171
(dp172
g6
I1
sg7
I1
sg8
I1
ssasVDisplay Units
p173
(lp174
(dp175
Vposition
p176
(dp177
g6
F0.09344708
sg7
F2.374039
sg8
F-0.7486746
ssVrotation
p178
(dp179
g6
I269
sg7
I0
sg8
I0
ssVscale
p180
(dp181
g6
I1
sg7
I1
sg8
I1
ssa(dp182
Vposition
p183
(dp184
g6
F1.555591
sg7
F0.6883294
sg8
F-2.126116
ssVrotation
p185
(dp186
g6
I0
sg7
I0
sg8
I0
ssVscale
p187
(dp188
g6
I1
sg7
I1
sg8
I1
ssa(dp189
Vposition
p190
(dp191
g6
F1.464033
sg7
F-2.033243
sg8
F-2.157866
ssVrotation
p192
(dp193
g6
I0
sg7
I0
sg8
I0
ssVscale
p194
(dp195
g6
I1
sg7
I1
sg8
I1
ssasVMirrors
p196
(lp197
(dp198
Vposition
p199
(dp200
g6
F1.366517
sg7
F2.594337
sg8
F0.6836107
ssVrotation
p201
(dp202
g6
I90
sg7
I0
sg8
I0
ssVscale
p203
(dp204
g6
I1
sg7
I1
sg8
I1
ssasVLamps
p205
(lp206
(dp207
Vposition
p208
(dp209
g6
F0.64275
sg7
F0.7383921
sg8
F2.105379
ssVrotation
p210
(dp211
g6
I0
sg7
I0
sg8
I0
ssVscale
p212
(dp213
g6
I1
sg7
I1
sg8
I1
ssa(dp214
Vposition
p215
(dp216
g6
F0.646966
sg7
F-1.953016
sg8
F2.105379
ssVrotation
p217
(dp218
g6
I0
sg7
I0
sg8
I0
ssVscale
p219
(dp220
g6
I1
sg7
I1
sg8
I1
ssa(dp221
Vposition
p222
(dp223
g6
F0.8363795
sg7
F-0.2424975
sg8
F-2.12117
ssVrotation
p224
(dp225
g6
I0
sg7
I0
sg8
I0
ssVscale
p226
(dp227
g6
I1
sg7
I1
sg8
I1
ssasVCurios and showpieces
p228
(lp229
(dp230
Vposition
p231
(dp232
g6
F0.844685
sg7
F-0.9303461
sg8
F-2.121997
ssVrotation
p233
(dp234
g6
I0
sg7
I0
sg8
I0
ssVscale
p235
(dp236
g6
I1
sg7
I1
sg8
I1
ssa(dp237
Vposition
p238
(dp239
g6
F2.189971
sg7
F2.476324
sg8
F-0.7203606
ssVrotation
p240
(dp241
g6
I269
sg7
I0
sg8
I0
ssVscale
p242
(dp243
g6
I1
sg7
I1
sg8
I1
ssasVVases
p244
(lp245
(dp246
Vposition
p247
(dp248
g6
F0.9239981
sg7
F-1.174347
sg8
F-2.055367
ssVrotation
p249
(dp250
g6
I0
sg7
I0
sg8
I0
ssVscale
p251
(dp252
g6
I1
sg7
I1
sg8
I1
ssasVPicture Frames
p253
(lp254
(dp255
Vposition
p256
(dp257
g6
F1.362206
sg7
F-0.9615099
sg8
F2.270128
ssVrotation
p258
(dp259
g6
I180
sg7
I0
sg8
I0
ssVscale
p260
(dp261
g6
I1
sg7
I1
sg8
I1
ssasVCarpets & Rugs
p262
(lp263
(dp264
Vposition
p265
(dp266
g6
F0.09344708
sg7
F-0.6304166
sg8
F-0.4257306
ssVrotation
p267
(dp268
g6
I0
sg7
I0
sg8
I0
ssVscale
p269
(dp270
g6
I1
sg7
I1
sg8
I1
ssas.