(dp0
I0
(iasset
Asset
p1
(dp2
S'_price'
p3
I2099
sS'_dimension'
p4
(dp5
S'width'
p6
F6.42
sS'depth'
p7
F7.42
sS'height'
p8
F3.08
ssS'_theme'
p9
VMid Century
p10
sS'_category'
p11
VFurniture
p12
sS'_subcategory'
p13
VBeds
p14
sS'_room_fit'
p15
VMaster Bedroom
p16
sS'_vertical'
p17
VQueen Sized Beds
p18
sS'_name'
p19
VAtwood Queen Bed without Bookcase Footboard
p20
sS'_brand'
p21
VCrate And Barrel
p22
sbsI1
(iasset
Asset
p23
(dp24
g3
F236.99
sg4
(dp25
g6
F1.67
sg7
F1.33
sg8
F1.83
ssg9
VMid Century
p26
sg11
g12
sg13
VTables
p27
sg15
VMaster Bedroom
p28
sg17
VBedside Tables
p29
sg19
VTanya Mid-Century 1 Drawer Nightstand
p30
sg21
VWayfair
p31
sbsI2
(iasset
Asset
p32
(dp33
g3
I449
sg4
(dp34
g6
F1.92
sg7
F1.52
sg8
F2.08
ssg9
VMid Century
p35
sg11
g12
sg13
g27
sg15
VMaster Bedroom
p36
sg17
g29
sg19
VTate Nightstand
p37
sg21
VPottery Barn
p38
sbsI3
(iasset
Asset
p39
(dp40
g3
I1099
sg4
(dp41
g6
F2.67
sg7
F1.67
sg8
F4.23
ssg9
VMid Century
p42
sg11
g12
sg13
VDrawers
p43
sg15
VMaster Bedroom
p44
sg17
VChest of Drawers
p45
sg19
VTate 5-Drawer Chest
p46
sg21
VCrate And Barrel
p47
sbsI4
(iasset
Asset
p48
(dp49
g3
I499
sg4
(dp50
g6
F2.67
sg7
F2.67
sg8
F2.38
ssg9
VMid Century
p51
sg11
VLighting
p52
sg13
VLights
p53
sg15
VLiving Room
p54
sg17
VChandeliers
p55
sg19
VVERANDA ROUND CHANDELIER
p56
sg21
VPottery Barn
p57
sbsI5
(iasset
Asset
p58
(dp59
g3
I419
sg4
(dp60
g6
F1.46
sg7
F1.46
sg8
F1.04
ssg9
VMid Century
p61
sg11
g52
sg13
g53
sg15
VLiving Room
p62
sg17
g55
sg19
VGEMMA CRYSTAL TIERED FLUSH MOUNT
p63
sg21
VPottery Barn
p64
sbsI6
(iasset
Asset
p65
(dp66
g3
I399
sg4
(dp67
g6
F1.25
sg7
F1.25
sg8
F1.92
ssg9
VTRANSITIONAL
p68
sg11
g12
sg13
g27
sg15
VLiving Room
p69
sg17
VEnd Tables
p70
sg19
VClayhill end table
p71
sg21
VArhaus
p72
sbsI7
(iasset
Asset
p73
(dp74
g3
I389
sg4
(dp75
g6
F1.63
sg7
F1.63
sg8
F5.42
ssg9
VMid Century
p76
sg11
g52
sg13
VLamps
p77
sg15
VLiving Room
p78
sg17
VFloor Lamps
p79
sg19
VGRACIE SHELF FLOOR LAMP
p80
sg21
VPottery Barn
p81
sbsI8
(iasset
Asset
p82
(dp83
g3
F629.1
sg4
(dp84
g6
F1.83
sg7
F1.83
sg8
F2.67
ssg9
VMid Century
p85
sg11
g52
sg13
g53
sg15
VLiving and Dining Room
p86
sg17
g55
sg19
VWooden prism chandelier with wrought iron candelabra
p87
sg21
VArhaus
p88
sbsI9
(iasset
Asset
p89
(dp90
g3
I40
sg4
(dp91
g6
I6
sg7
F1.17
sg8
F2.5
ssg9
VIndustrial
p92
sg11
g12
sg13
g27
sg15
VLiving Room
p93
sg17
VConsole Tables
p94
sg19
VTHADDEUS FORGED IRON & GLASS CONSOLE TABLE
p95
sg21
VRestoration Hardware
p96
sbsI10
(iasset
Asset
p97
(dp98
g3
I1895
sg4
(dp99
g6
F3.17
sg7
F3.17
sg8
F6.67
ssg9
VIndustrial
p100
sg11
g52
sg13
g53
sg15
VLiving Room
p101
sg17
g55
sg19
VCAMINO VINTAGE CANDELABRA ROUND CHANDELIER 38"
p102
sg21
VRestoration Hardware
p103
sbsI11
(iasset
Asset
p104
(dp105
g3
I974
sg4
(dp106
g6
F2.33
sg7
F2.96
sg8
F2.42
ssg9
VMid Century
p107
sg11
g12
sg13
VChairs
p108
sg15
VLiving Room
p109
sg17
VAccent Chairs
p110
sg19
VRAYLAN LEATHER ARMCHAIR
p111
sg21
VPottery Barn
p112
sbsI12
(iasset
Asset
p113
(dp114
g3
I499
sg4
(dp115
g6
F2.25
sg7
F1.42
sg8
F2.17
ssg9
VMid Century
p116
sg11
g12
sg13
g27
sg15
VLiving Room
p117
sg17
g70
sg19
VGRIFFIN RECLAIMED WOOD END TABLE
p118
sg21
VPottery Barn
p119
sbsI13
(iasset
Asset
p120
(dp121
g3
I1099
sg4
(dp122
g6
I5
sg7
F3.5
sg8
F1.58
ssg9
VMid Century
p123
sg11
g12
sg13
g27
sg15
VLiving Room
p124
sg17
VCoffee Tables
p125
sg19
VGriffin Reclaimed Wood Coffee Table
p126
sg21
VPottery Barn
p127
sbsI14
(iasset
Asset
p128
(dp129
g3
I399
sg4
(dp130
g6
F1.5
sg7
F0.92
sg8
F2.52
ssg9
VCONTEMPORARY
p131
sg11
g52
sg13
g77
sg15
VLiving Room
p132
sg17
VTable Lamps
p133
sg19
VBarton Glass and Metal Table Lamp
p134
sg21
VCrate And Barrel
p135
sbsI15
(iasset
Asset
p136
(dp137
g3
I17
sg4
(dp138
g6
F2.58
sg7
F2.58
sg8
F3.42
ssg9
VCONTEMPORARY
p139
sg11
g52
sg13
g53
sg15
VLiving Room
p140
sg17
g55
sg19
VAva Large Chandelier
p141
sg21
VCrate And Barrel
p142
sbsI16
(iasset
Asset
p143
(dp144
g3
I1050
sg4
(dp145
g6
F5.54
sg7
F1.54
sg8
F6.15
ssg9
VTRANSITIONAL
p146
sg11
g12
sg13
VDisplay Units
p147
sg15
VLiving Room
p148
sg17
VShowcase Units
p149
sg19
VWYATT DOUBLE SHELVING
p150
sg21
VRestoration Hardware
p151
sbsI17
(iasset
Asset
p152
(dp153
g3
I1399
sg4
(dp154
g6
F4.92
sg7
F3.44
sg8
F1.73
ssg9
VTraditional
p155
sg11
g12
sg13
g27
sg15
VLiving Room
p156
sg17
g125
sg19
VAcero coffee table
p157
sg21
VArhaus
p158
sbsI18
(iasset
Asset
p159
(dp160
g3
I299
sg4
(dp161
g6
F3.75
sg7
F1.5
sg8
F5.92
ssg9
VCONTEMPORARY
p162
sg11
g52
sg13
g77
sg15
VLiving Room
p163
sg17
g79
sg19
VDexter Arc Floor Lamp with White Shade
p164
sg21
VCrate And Barrel
p165
sbsI19
(iasset
Asset
p166
(dp167
g3
I499
sg4
(dp168
g6
F2.83
sg7
F2.83
sg8
I4
ssg9
VHollywood Regency
p169
sg11
g52
sg13
g53
sg15
VLiving Room
p170
sg17
g55
sg19
VSputnik Chandelier - Brass
p171
sg21
VWest Elm
p172
sbsI20
(iasset
Asset
p173
(dp174
g3
I146
sg4
(dp175
g6
F1.16
sg7
F1.16
sg8
F2.16
ssg9
VCONTEMPORARY
p176
sg11
g52
sg13
g77
sg15
VMaster Bedroom
p177
sg17
g133
sg19
VTelescoping Table Lamp - Black
p178
sg21
VWest Elm
p179
sbsI21
(iasset
Asset
p180
(dp181
g3
I799
sg4
(dp182
g6
I5
sg7
I2
sg8
F1.45
ssg9
VMid Century
p183
sg11
g12
sg13
g27
sg15
VLiving Room
p184
sg17
g125
sg19
VMid-Century Pop-Up Storage Coffee Table
p185
sg21
VWest Elm
p186
sbsI22
(iasset
Asset
p187
(dp188
g3
F70.99
sg4
(dp189
g6
F1.33
sg7
F0.06
sg8
F2.16
ssg9
VMid Century
p190
sg11
VDecor
p191
sg13
VMirrors
p192
sg15
VLiving Room
p193
sg17
VWall Mirrors
p194
sg19
VRustic Bronze Wall Mirror
p195
sg21
VWayfair
p196
sbsI23
(iasset
Asset
p197
(dp198
g3
F27.99
sg4
(dp199
g6
F0.91
sg7
F0.12
sg8
F1.16
ssg9
VMid Century
p200
sg11
VWall Art
p201
sg13
Vpaintings
p202
sg15
VLiving Room
p203
sg17
Vabstract paintings
p204
sg19
VBird Painting Print on Canvas
p205
sg21
VWayfair
p206
sbsI24
(iasset
Asset
p207
(dp208
g3
F54.99
sg4
(dp209
g6
F1.33
sg7
F0.25
sg8
F1.33
ssg9
VMid Century
p210
sg11
VFurnishing
p211
sg13
VCushions
p212
sg15
VLiving Room
p213
sg17
VCushions
p214
sg19
VMadison Outdoor Throw Pillow
p215
sg21
VWayfair
p216
sbsI25
(iasset
Asset
p217
(dp218
g3
F35.99
sg4
(dp219
g6
F1.5
sg7
F0.5
sg8
F1.5
ssg9
VMid Century
p220
sg11
g211
sg13
g212
sg15
VLiving Room
p221
sg17
g214
sg19
VBehan Dot 100% Cotton Throw Pillow
p222
sg21
VWayfair
p223
sbsI26
(iasset
Asset
p224
(dp225
g3
F83.99
sg4
(dp226
g6
F4.05
sg7
F1.15
sg8
F1.25
ssg9
VMid Century
p227
sg11
g12
sg13
VTV Units
p228
sg15
VLiving Room
p229
sg17
VTV Units
p230
sg19
VWhitney TV Stand for TVs up to 48"
p231
sg21
VWayfair
p232
sbsI27
(iasset
Asset
p233
(dp234
g3
F139.8
sg4
(dp235
g6
F2.06
sg7
F1.33
sg8
I6
ssg9
VMid Century
p236
sg11
g12
sg13
g147
sg15
VLiving Room
p237
sg17
VBookshelves
p238
sg19
VAldo Ladder Bookcase
p239
sg21
VWayfair
p240
sbsI28
(iasset
Asset
p241
(dp242
g3
F175.99
sg4
(dp243
g6
F2.88
sg7
F1.22
sg8
F2.88
ssg9
VMid Century
p244
sg11
g12
sg13
g43
sg15
VLiving Room
p245
sg17
g45
sg19
VBirchfield 4 Drawer Chest
p246
sg21
VWayfair
p247
sbsI29
(iasset
Asset
p248
(dp249
g3
F111.11
sg4
(dp250
g6
F1.58
sg7
F1.58
sg8
I5
ssg9
VMid Century
p251
sg11
g52
sg13
g77
sg15
VLiving Room
p252
sg17
g79
sg19
VMackenzie 60" Floor Lamp
p253
sg21
VWayfair
p254
sbsI30
(iasset
Asset
p255
(dp256
g3
F164.99
sg4
(dp257
g6
F3.93
sg7
F1.12
sg8
F2.5
ssg9
VMid Century
p258
sg11
g12
sg13
g27
sg15
VLiving Room
p259
sg17
g94
sg19
VCreenagh Console Table
p260
sg21
VWayfair
p261
sbsI31
(iasset
Asset
p262
(dp263
g3
F79.99
sg4
(dp264
g6
F4.05
sg7
F1.15
sg8
F1.25
ssg9
VMid Century
p265
sg11
g12
sg13
g228
sg15
VLiving Room
p266
sg17
g230
sg19
VWhitney TV Stand for TVs up to 48
p267
sg21
VWayfair
p268
sbsI32
(iasset
Asset
p269
(dp270
g3
F515.22
sg4
(dp271
g6
I5
sg7
F2.95
sg8
F2.44
ssg9
VMid Century
p272
sg11
g12
sg13
VDining
p273
sg15
VLiving and Dining Room
p274
sg17
V4 Seater Dining Table Sets
p275
sg19
VDundas 5 Piece Dining Set
p276
sg21
VWayfair
p277
sbsI33
(iasset
Asset
p278
(dp279
g3
F143.99
sg4
(dp280
g6
F2.33
sg7
F2.33
sg8
F2.54
ssg9
VMid Century
p281
sg11
g12
sg13
g108
sg15
VLiving Room
p282
sg17
g110
sg19
VIzabella Armchair
p283
sg21
VWayfair
p284
sbsI34
(iasset
Asset
p285
(dp286
g3
F729.99
sg4
(dp287
g6
F6.5
sg7
F2.75
sg8
F2.7
ssg9
VMid Century
p288
sg11
g12
sg13
VSofas
p289
sg15
VLiving Room
p290
sg17
VLoveseats
p291
sg19
VJohnston Tufted Upholstered Loveseat
p292
sg21
VWayfair
p293
sbsI35
(iasset
Asset
p294
(dp295
g3
I299
sg4
(dp296
g6
F1.7
sg7
F2.04
sg8
F2.7
ssg9
VMid Century
p297
sg11
g12
sg13
g273
sg15
VDining Room
p298
sg17
VDining Chairs
p299
sg19
VVELVET DINING CHAIR
p300
sg21
VWest Elm
p301
sbsI36
(iasset
Asset
p302
(dp303
g3
I299
sg4
(dp304
g6
F1.7
sg7
F2.04
sg8
F2.7
ssg9
VMid Century
p305
sg11
g12
sg13
g273
sg15
VLiving Room
p306
sg17
g299
sg19
VMID CENTURY DINING CHAIR
p307
sg21
VWest Elm
p308
sbsI37
(iasset
Asset
p309
(dp310
g3
F169.99
sg4
(dp311
g6
F3.47
sg7
F1.18
sg8
F2.66
ssg9
VMid Century
p312
sg11
g12
sg13
g27
sg15
VLiving Room
p313
sg17
g94
sg19
VMid-Century Console - Acorn
p314
sg21
VWayfair
p315
sbsI38
(iasset
Asset
p316
(dp317
g3
I699
sg4
(dp318
g6
F2.1
sg7
F2.63
sg8
F2.69
ssg9
VMid Century
p319
sg11
g12
sg13
g108
sg15
VLiving Room
p320
sg17
VLounge Chairs
p321
sg19
VMid-Century Show Wood Chair
p322
sg21
VWest Elm
p323
sbsI39
(iasset
Asset
p324
(dp325
g3
I499
sg4
(dp326
g6
F3.87
sg7
F1.35
sg8
F1.95
ssg9
VMid Century
p327
sg11
g12
sg13
g108
sg15
VLiving Room
p328
sg17
VBenches
p329
sg19
VMid-Century Storage Bench - Acorn
p330
sg21
VWest Elm
p331
sbsI40
(iasset
Asset
p332
(dp333
g3
I1399
sg4
(dp334
g6
F3.9
sg7
F3.9
sg8
F2.45
ssg9
VIndian
p335
sg11
g12
sg13
g273
sg15
VLiving Room
p336
sg17
VDining Tables
p337
sg19
Vmid century round table
p338
sg21
VWest Elm
p339
sbsI41
(iasset
Asset
p340
(dp341
g3
I699
sg4
(dp342
g6
F4.5
sg7
F2.6
sg8
F2.5
ssg9
VMid Century
p343
sg11
g12
sg13
g273
sg15
VDining Room
p344
sg17
g275
sg19
Vmid century modern expandable table
p345
sg21
VWest Elm
p346
sbsI42
(iasset
Asset
p347
(dp348
g3
I0
sg4
(dp349
g6
F1.7
sg7
F2.04
sg8
F2.7
ssg9
VMid Century
p350
sg11
g12
sg13
g273
sg15
VDining Room
p351
sg17
g275
sg19
VMid-Century Velvet Dining Chair
p352
sg21
VWest Elm
p353
sbsI43
(iasset
Asset
p354
(dp355
g3
F182.99
sg4
(dp356
g6
F1.5
sg7
I1
sg8
F6.08
ssg9
VART DECO
p357
sg11
g12
sg13
g147
sg15
VLiving Room
p358
sg17
g238
sg19
VBuchanan Mini Bookcase
p359
sg21
VWayfair
p360
sbsI44
(iasset
Asset
p361
(dp362
g3
F118.99
sg4
(dp363
g6
F5.91
sg7
I9
sg8
F0.05
ssg9
VART DECO
p364
sg11
g211
sg13
VCarpets & Rugs
p365
sg15
VLiving Room
p366
sg17
VSynthetic Carpets
p367
sg19
VMontross Blue Area Rug
p368
sg21
VWayfair
p369
sbsI45
(iasset
Asset
p370
(dp371
g3
F144.48
sg4
(dp372
g6
I5
sg7
I8
sg8
F0.05
ssg9
VCONTEMPORARY
p373
sg11
g211
sg13
g365
sg15
VLiving Room
p374
sg17
g367
sg19
VPeoPles Blue Area Rug
p375
sg21
VWayfair
p376
sbsI46
(iasset
Asset
p377
(dp378
g3
F539.99
sg4
(dp379
g6
F2.95
sg7
F2.95
sg8
F2.5
ssg9
VART DECO
p380
sg11
g12
sg13
g273
sg15
VDining Room
p381
sg17
g275
sg19
VGoncalvo Dining Table
p382
sg21
VWayfair
p383
sbsI47
(iasset
Asset
p384
(dp385
g3
I799
sg4
(dp386
g6
F3.66
sg7
F3.66
sg8
F2.5
ssg9
VART DECO
p387
sg11
g12
sg13
g273
sg15
VDining Room
p388
sg17
g275
sg19
VSilhouette Pedestal Dining Table
p389
sg21
VWest Elm
p390
sbsI48
(iasset
Asset
p391
(dp392
g3
F745.22
sg4
(dp393
g6
I6
sg7
F1.5
sg8
F3.25
ssg9
VART DECO
p394
sg11
g12
sg13
g228
sg15
VLiving Room
p395
sg17
g230
sg19
VIra TV Stand
p396
sg21
VWayfair
p397
sbsI49
(iasset
Asset
p398
(dp399
g3
F641.92
sg4
(dp400
g6
I5
sg7
F1.33
sg8
I3
ssg9
VART DECO
p401
sg11
g12
sg13
g228
sg15
VLiving Room
p402
sg17
g230
sg19
VKeiper Distressed Tin Pressed Credenza
p403
sg21
VWayfair
p404
sbsI50
(iasset
Asset
p405
(dp406
g3
F459.99
sg4
(dp407
g6
F1.95
sg7
F1.83
sg8
F2.95
ssg9
VART DECO
p408
sg11
g12
sg13
g108
sg15
VLiving Room
p409
sg17
VBar Chairs
p410
sg19
VMira Bar Stool
p411
sg21
VWayfair
p412
sbsI51
(iasset
Asset
p413
(dp414
g3
F589.99
sg4
(dp415
g6
F1.62
sg7
F1.75
sg8
F3.45
ssg9
VART DECO
p416
sg11
g12
sg13
g108
sg15
VLiving Room
p417
sg17
g410
sg19
VAmalfi Bar Stool
p418
sg21
VWayfair
p419
sbsI52
(iasset
Asset
p420
(dp421
g3
F717.21
sg4
(dp422
g6
F1.33
sg7
F0.66
sg8
F5.16
ssg9
VART DECO
p423
sg11
g52
sg13
g77
sg15
VLiving Room
p424
sg17
g79
sg19
VClara Gold Leaf Floor Lamp
p425
sg21
VCrate And Barrel
p426
sbsI53
(iasset
Asset
p427
(dp428
g3
F249.99
sg4
(dp429
g6
F3.91
sg7
F1.95
sg8
F1.54
ssg9
VART DECO
p430
sg11
g12
sg13
g27
sg15
VLiving Room
p431
sg17
g125
sg19
VAstor Coffee Table
p432
sg21
VWayfair
p433
sbsI54
(iasset
Asset
p434
(dp435
g3
I929
sg4
(dp436
g6
F3.16
sg7
F3.16
sg8
F1.41
ssg9
VART DECO
p437
sg11
g12
sg13
g27
sg15
VLiving Room
p438
sg17
g125
sg19
VConstantin Coffee Table
p439
sg21
VWayfair
p440
sbsI55
(iasset
Asset
p441
(dp442
g3
F42.99
sg4
(dp443
g6
F1.5
sg7
F0.12
sg8
F1.5
ssg9
VART DECO
p444
sg11
g201
sg13
Vart panels
p445
sg15
VLiving Room
p446
sg17
Vabstract art panels
p447
sg19
VArt Deco III
p448
sg21
VWayfair
p449
sbsI56
(iasset
Asset
p450
(dp451
g3
F40.99
sg4
(dp452
g6
F1.33
sg7
F0.33
sg8
F1.33
ssg9
VART DECO
p453
sg11
g211
sg13
g212
sg15
VLiving Room
p454
sg17
VPillows
p455
sg19
VArt Deco Lady Throw Pillow
p456
sg21
VWayfair
p457
sbsI57
(iasset
Asset
p458
(dp459
g3
F14.59
sg4
(dp460
g6
F5.16
sg7
F7.16
sg8
F0.05
ssg9
VART DECO
p461
sg11
g211
sg13
g365
sg15
VLiving Room
p462
sg17
g367
sg19
VEdolie Area Rug
p463
sg21
VWayfair
p464
sbsI58
(iasset
Asset
p465
(dp466
g3
F75.99
sg4
(dp467
g6
F5.16
sg7
F7.58
sg8
F0.05
ssg9
VART DECO
p468
sg11
g211
sg13
g365
sg15
VLiving Room
p469
sg17
g367
sg19
VArt Deco Teal Area Rug
p470
sg21
VWayfair
p471
sbsI59
(iasset
Asset
p472
(dp473
g3
F639.18
sg4
(dp474
g6
I8
sg7
I10
sg8
F0.05
ssg9
VCONTEMPORARY
p475
sg11
g211
sg13
g365
sg15
VLiving Room
p476
sg17
VCotton Carpets
p477
sg19
Vdoppler black and white rug
p478
sg21
VCB2
p479
sbsI60
(iasset
Asset
p480
(dp481
g3
I419
sg4
(dp482
g6
F2.83
sg7
F3.04
sg8
F1.37
ssg9
VCONTEMPORARY
p483
sg11
g12
sg13
g27
sg15
VLiving Room
p484
sg17
g125
sg19
VStacked Disk Storage Coffee Table
p485
sg21
VWest Elm
p486
sbsI61
(iasset
Asset
p487
(dp488
g3
I599
sg4
(dp489
g6
I3
sg7
I3
sg8
F1.33
ssg9
VCONTEMPORARY
p490
sg11
g12
sg13
g27
sg15
VLiving Room
p491
sg17
g125
sg19
VTiered Quartz Coffee Table
p492
sg21
VWest Elm
p493
sbsI62
(iasset
Asset
p494
(dp495
g3
F63.99
sg4
(dp496
g6
F1.75
sg7
F0.33
sg8
F2.08
ssg9
VIndustrial
p497
sg11
g12
sg13
g147
sg15
VLiving Room
p498
sg17
VWall Shelves
p499
sg19
VPavo 16 Bottle Hanging Wine Rack
p500
sg21
VWayfair
p501
sbsI63
(iasset
Asset
p502
(dp503
g3
F63.99
sg4
(dp504
g6
F1.75
sg7
F0.33
sg8
F2.08
ssg9
VIndustrial
p505
sg11
g12
sg13
g147
sg15
VLiving Room
p506
sg17
g499
sg19
VPavo 16 Bottle Hanging Wine Rack
p507
sg21
VWayfair
p508
sbsI64
(iasset
Asset
p509
(dp510
g3
F37.99
sg4
(dp511
g6
F0.83
sg7
F0.33
sg8
F1.91
ssg9
VIndustrial
p512
sg11
g12
sg13
g147
sg15
VLiving Room
p513
sg17
g499
sg19
VWall Mounted Wine Rack
p514
sg21
VWayfair
p515
sbsI65
(iasset
Asset
p516
(dp517
g3
I2175
sg4
(dp518
g6
I4
sg7
I4
sg8
F2.6
ssg9
VIndustrial
p519
sg11
g52
sg13
g53
sg15
VLiving Room
p520
sg17
g55
sg19
VVR Chandelier
p521
sg21
VRestoration Hardware
p522
sbsI66
(iasset
Asset
p523
(dp524
g3
F85.77
sg4
(dp525
g6
F2.33
sg7
F2.33
sg8
F0.41
ssg9
VIndustrial
p526
sg11
g211
sg13
g212
sg15
VLiving Room
p527
sg17
g214
sg19
Vbraided jute floor cushion
p528
sg21
VCB2
p529
sbsI67
(iasset
Asset
p530
(dp531
g3
F85.77
sg4
(dp532
g6
F2.33
sg7
F2.33
sg8
F0.41
ssg9
VIndustrial
p533
sg11
g211
sg13
g212
sg15
VLiving Room
p534
sg17
g214
sg19
Vbraided jute floor cushion
p535
sg21
VCB2
p536
sbsI68
(iasset
Asset
p537
(dp538
g3
F92.99
sg4
(dp539
g6
F2.16
sg7
F2.16
sg8
F0.5
ssg9
VIndustrial
p540
sg11
g211
sg13
g212
sg15
VLiving Room
p541
sg17
g214
sg19
VEduarda Graphic Floor Pillow
p542
sg21
VWayfair
p543
sbsI69
(iasset
Asset
p544
(dp545
g3
F71.99
sg4
(dp546
g6
F2.16
sg7
F2.16
sg8
F0.5
ssg9
VModern
p547
sg11
g211
sg13
g212
sg15
VLiving Room
p548
sg17
g214
sg19
VCabana Classic Floor Pillow
p549
sg21
VWayfair
p550
sbsI70
(iasset
Asset
p551
(dp552
g3
F1286.33
sg4
(dp553
g6
I4
sg7
I4
sg8
F2.45
ssg9
VIndustrial
p554
sg11
g12
sg13
g273
sg15
VDining Room
p555
sg17
g275
sg19
VRound Adjustable Height Dining Table
p556
sg21
VCrate And Barrel
p557
sbsI71
(iasset
Asset
p558
(dp559
g3
F1071.76
sg4
(dp560
g6
F4.58
sg7
F2.95
sg8
F2.5
ssg9
VIndustrial
p561
sg11
g12
sg13
g273
sg15
VDining Room
p562
sg17
g275
sg19
Vfuze grey dining table
p563
sg21
VCB2
p564
sbsI72
(iasset
Asset
p565
(dp566
g3
F427.75
sg4
(dp567
g6
F2.62
sg7
F2.62
sg8
F1.27
ssg9
VIndustrial
p568
sg11
g12
sg13
g27
sg15
VLiving Room
p569
sg17
g125
sg19
Velement coffee table
p570
sg21
VCB2
p571
sbsI73
(iasset
Asset
p572
(dp573
g3
F36.99
sg4
(dp574
g6
F1.5
sg7
F0.06
sg8
F2.16
ssg9
VBohemian
p575
sg11
g201
sg13
g445
sg15
VLiving Room
p576
sg17
Vfloral art panels
p577
sg19
VBohemian Feather V Painting
p578
sg21
VWayfair
p579
sbsI74
(iasset
Asset
p580
(dp581
g3
F219.99
sg4
(dp582
g6
F1.66
sg7
F0.29
sg8
F1.33
ssg9
VBohemian
p583
sg11
g201
sg13
g445
sg15
VLiving Room
p584
sg17
Vwildlife art panels
p585
sg19
VBohemian Birds' Print on Fabric
p586
sg21
VWayfair
p587
sbsI75
(iasset
Asset
p588
(dp589
g3
F35.49
sg4
(dp590
g6
F3.25
sg7
F5.25
sg8
F0.05
ssg9
VBohemian
p591
sg11
g211
sg13
g365
sg15
VMaster Bedroom
p592
sg17
VWool Carpets
p593
sg19
VMassaoud Area Rug
p594
sg21
VWayfair
p595
sbsI76
(iasset
Asset
p596
(dp597
g3
F38.99
sg4
(dp598
g6
I5
sg7
I8
sg8
F0.05
ssg9
VBohemian
p599
sg11
g211
sg13
g365
sg15
VLiving Room
p600
sg17
g367
sg19
VNewburyport Orange Area Rug
p601
sg21
VWayfair
p602
sbsI77
(iasset
Asset
p603
(dp604
g3
F21.99
sg4
(dp605
g6
F1.5
sg7
F0.33
sg8
F1.5
ssg9
VBohemian
p606
sg11
g211
sg13
g212
sg15
VLiving Room
p607
sg17
VPillow Covers
p608
sg19
VBilbie Square 100% Cotton Pillow Cover
p609
sg21
VWayfair
p610
sbsI78
(iasset
Asset
p611
(dp612
g3
F141.6
sg4
(dp613
g6
F1.58
sg7
F1.95
sg8
F3.16
ssg9
VBohemian
p614
sg11
g12
sg13
g108
sg15
VLiving Room
p615
sg17
g110
sg19
VRidgefield Parsons Chair
p616
sg21
VWayfair
p617
sbsI79
(iasset
Asset
p618
(dp619
g3
F165.99
sg4
(dp620
g6
F5.25
sg7
I1
sg8
F3.41
ssg9
VModern
p621
sg11
g12
sg13
g228
sg15
VLiving Room
p622
sg17
g230
sg19
VMonier TV Stand
p623
sg21
VWayfair
p624
sbsI80
(iasset
Asset
p625
(dp626
g3
F40.99
sg4
(dp627
g6
I1
sg7
F0.25
sg8
F1.25
ssg9
VModern
p628
sg11
g191
sg13
VCurios and showpieces
p629
sg15
VLiving Room
p630
sg17
Vshowpieces
p631
sg19
VMetal Medallion Sculpture
p632
sg21
VWayfair
p633
sbsI81
(iasset
Asset
p634
(dp635
g3
F43.99
sg4
(dp636
g6
I2
sg7
F0.08
sg8
F1.33
ssg9
VCONTEMPORARY
p637
sg11
g201
sg13
g445
sg15
VLiving Room
p638
sg17
g577
sg19
VTurquoise Succulent
p639
sg21
VWayfair
p640
sbsI82
(iasset
Asset
p641
(dp642
g3
F22.99
sg4
(dp643
g6
F8.16
sg7
F9.83
sg8
F0.05
ssg9
VCONTEMPORARY
p644
sg11
g211
sg13
g365
sg15
VLiving Room
p645
sg17
g593
sg19
VBlack & Beige Area Rug
p646
sg21
VWayfair
p647
sbsI83
(iasset
Asset
p648
(dp649
g3
F130.22
sg4
(dp650
g6
F4.83
sg7
F1.33
sg8
F2.08
ssg9
VCONTEMPORARY
p651
sg11
g12
sg13
g228
sg15
VLiving Room
p652
sg17
g230
sg19
VBissonnette 58 TV Stand
p653
sg21
VWayfair
p654
sbsI84
(iasset
Asset
p655
(dp656
g3
F600.99
sg4
(dp657
g6
F7.33
sg7
F3.08
sg8
F3.08
ssg9
VCONTEMPORARY
p658
sg11
g12
sg13
g289
sg15
VLiving Room
p659
sg17
Vsofa sets
p660
sg19
VDerry Sofa
p661
sg21
VWayfair
p662
sbsI85
(iasset
Asset
p663
(dp664
g3
I326
sg4
(dp665
g6
I5
sg7
F1.16
sg8
F1.5
ssg9
VRUSTIC
p666
sg11
g12
sg13
g108
sg15
VLiving Room
p667
sg17
g329
sg19
VLuro Sheesham Wood Bench
p668
sg21
VWayfair
p669
sbsI86
(iasset
Asset
p670
(dp671
g3
F92.99
sg4
(dp672
g6
F2.14
sg7
I2
sg8
F2.8
ssg9
VScandinavian
p673
sg11
g12
sg13
g108
sg15
VLiving Room
p674
sg17
g110
sg19
VTrent Side Chair-Red
p675
sg21
VWayfair
p676
sbsI87
(iasset
Asset
p677
(dp678
g3
F110.02
sg4
(dp679
g6
F2.04
sg7
F2.1667
sg8
F2.83
ssg9
VScandinavian
p680
sg11
g12
sg13
g108
sg15
VLiving Room
p681
sg17
g110
sg19
VTrent Side Chair-Blue
p682
sg21
VWayfair
p683
sbsI88
(iasset
Asset
p684
(dp685
g3
I62
sg4
(dp686
g6
I7
sg7
I10
sg8
F0.05
ssg9
VModern
p687
sg11
g211
sg13
g365
sg15
VLiving Room
p688
sg17
g593
sg19
VChenango Rectangle Cream Area Rug
p689
sg21
VWayfair
p690
sbsI89
(iasset
Asset
p691
(dp692
g3
I100
sg4
(dp693
g6
F0.83
sg7
F0.75
sg8
F0.83
ssg9
VScandinavian
p694
sg11
g52
sg13
g53
sg15
VLiving Room
p695
sg17
VHanging Lights
p696
sg19
VDelon 1-Light Lantern Pendant
p697
sg21
VWayfair
p698
sbsI90
(iasset
Asset
p699
(dp700
g3
I450
sg4
(dp701
g6
F3.91
sg7
F2.58
sg8
F1.37
ssg9
VIndustrial
p702
sg11
g12
sg13
g27
sg15
VLiving Room
p703
sg17
g125
sg19
VGordillo Coffee Table
p704
sg21
VWayfair
p705
sbsI91
(iasset
Asset
p706
(dp707
g3
F12.99
sg4
(dp708
g6
F1.667
sg7
F0.25
sg8
F1.667
ssg9
VScandinavian
p709
sg11
g211
sg13
g212
sg15
VLiving Room
p710
sg17
g608
sg19
VAntonia Cotton Throw Pillow Cover
p711
sg21
VWayfair
p712
sbsI92
(iasset
Asset
p713
(dp714
g3
F24.38
sg4
(dp715
g6
F1.667
sg7
F0.25
sg8
F1.667
ssg9
VScandinavian
p716
sg11
g211
sg13
g212
sg15
VLiving Room
p717
sg17
g608
sg19
VSteele Cotton Pillow Cover
p718
sg21
VWayfair
p719
sbsI93
(iasset
Asset
p720
(dp721
g3
F12.78
sg4
(dp722
g6
F1.667
sg7
F0.25
sg8
F1.667
ssg9
VScandinavian
p723
sg11
g211
sg13
g212
sg15
VLiving Room
p724
sg17
g608
sg19
VHalverson Cotton Pillow Cover-Blue
p725
sg21
VWayfair
p726
sbsI94
(iasset
Asset
p727
(dp728
g3
F12.78
sg4
(dp729
g6
F1.5
sg7
F0.25
sg8
F1.5
ssg9
VScandinavian
p730
sg11
g211
sg13
g212
sg15
VLiving Room
p731
sg17
g608
sg19
VHalverson Cotton Pillow Cover
p732
sg21
VWayfair
p733
sbsI95
(iasset
Asset
p734
(dp735
g3
F22.49
sg4
(dp736
g6
F1.5
sg7
F0.25
sg8
F1.5
ssg9
VScandinavian
p737
sg11
g211
sg13
g212
sg15
VLiving Room
p738
sg17
g608
sg19
VJustus Cotton Pillow Cover
p739
sg21
VWayfair
p740
sbsI96
(iasset
Asset
p741
(dp742
g3
F24.52
sg4
(dp743
g6
F1.6
sg7
F0.2
sg8
F1.6
ssg9
VScandinavian
p744
sg11
g211
sg13
g212
sg15
VLiving Room
p745
sg17
g608
sg19
VBilbie Square Cotton Pillow Cover
p746
sg21
VWayfair
p747
sbsI97
(iasset
Asset
p748
(dp749
g3
I21
sg4
(dp750
g6
F1.33
sg7
F0.33
sg8
F1.33
ssg9
VIndustrial
p751
sg11
g211
sg13
g212
sg15
VLiving Room
p752
sg17
g455
sg19
VCopeland 1 Printed Throw Pillow
p753
sg21
VWayfair
p754
sbsI98
(iasset
Asset
p755
(dp756
g3
F233.99
sg4
(dp757
g6
F2.27
sg7
F2.44
sg8
F2.69
ssg9
VMid Century
p758
sg11
g12
sg13
g108
sg15
VLiving Room
p759
sg17
g110
sg19
VDelasandro Accent Armchair
p760
sg21
VWayfair
p761
sbsI99
(iasset
Asset
p762
(dp763
g3
I87
sg4
(dp764
g6
F2.99
sg7
I1
sg8
F2.46
ssg9
VRUSTIC
p765
sg11
g12
sg13
g147
sg15
VLiving Room
p766
sg17
g499
sg19
VGalvanized Accent Shelf
p767
sg21
VWayfair
p768
sbsI100
(iasset
Asset
p769
(dp770
g3
I46
sg4
(dp771
g6
I2
sg7
F0.45
sg8
F0.16
ssg9
VRUSTIC
p772
sg11
g12
sg13
g147
sg15
VLiving Room
p773
sg17
g499
sg19
VEvonne Floating Shelf
p774
sg21
VWayfair
p775
sbsI101
(iasset
Asset
p776
(dp777
g3
I188
sg4
(dp778
g6
F2.95
sg7
F2.95
sg8
F1.05
ssg9
VRUSTIC
p779
sg11
g12
sg13
g27
sg15
VLiving Room
p780
sg17
g125
sg19
VTreece Coffee Table
p781
sg21
VWayfair
p782
sbsI102
(iasset
Asset
p783
(dp784
g3
I516
sg4
(dp785
g6
F5.33
sg7
I3
sg8
F1.66
ssg9
VCONTEMPORARY
p786
sg11
g12
sg13
g27
sg15
VLiving Room
p787
sg17
g125
sg19
VMasuda 2 Piece Coffee Table Set
p788
sg21
VWayfair
p789
sbsI103
(iasset
Asset
p790
(dp791
g3
I189
sg4
(dp792
g6
F0.83
sg7
F0.83
sg8
F5.8
ssg9
VCONTEMPORARY
p793
sg11
g52
sg13
g77
sg15
VLiving Room
p794
sg17
g79
sg19
VAakash Floor Lamp
p795
sg21
VWayfair
p796
sbsI104
(iasset
Asset
p797
(dp798
g3
F153.99
sg4
(dp799
g6
F1.5
sg7
F1.5
sg8
F1.18
ssg9
VScandinavian
p800
sg11
g12
sg13
g27
sg15
VLiving Room
p801
sg17
g125
sg19
VHowerton Coffee Table
p802
sg21
VWayfair
p803
sbsI105
(iasset
Asset
p804
(dp805
g3
I42
sg4
(dp806
g6
F1.5
sg7
F0.12
sg8
F1.5
ssg9
VRUSTIC
p807
sg11
g201
sg13
g445
sg15
VLiving Room
p808
sg17
g585
sg19
VHigh Country Moose
p809
sg21
VWayfair
p810
sbsI106
(iasset
Asset
p811
(dp812
g3
I39
sg4
(dp813
g6
I2
sg7
F0.12
sg8
I2
ssg9
VRUSTIC
p814
sg11
g201
sg13
g445
sg15
VLiving Room
p815
sg17
VLandscape Art Panels
p816
sg19
VNature's Palette II
p817
sg21
VWayfair
p818
sbsI107
(iasset
Asset
p819
(dp820
g3
I40
sg4
(dp821
g6
F0.58
sg7
F0.0525
sg8
F0.94
ssg9
VScandinavian
p822
sg11
g191
sg13
g192
sg15
VLiving Room
p823
sg17
g194
sg19
VDima Mirror Set-Black
p824
sg21
VAll Modern
p825
sbsI108
(iasset
Asset
p826
(dp827
g3
I40
sg4
(dp828
g6
F0.58
sg7
F0.0525
sg8
F0.94
ssg9
VScandinavian
p829
sg11
g191
sg13
g192
sg15
VLiving Room
p830
sg17
g194
sg19
VDima Mirror Set-Copper
p831
sg21
VAll Modern
p832
sbsI109
(iasset
Asset
p833
(dp834
g3
I42
sg4
(dp835
g6
I2
sg7
F0.12
sg8
F1.33
ssg9
VRUSTIC
p836
sg11
g201
sg13
g445
sg15
VLiving Room
p837
sg17
g816
sg19
VBranching Out III
p838
sg21
VWayfair
p839
sbsI110
(iasset
Asset
p840
(dp841
g3
I272
sg4
(dp842
g6
F4.44
sg7
F1.5
sg8
F2.49
ssg9
VIndustrial
p843
sg11
g12
sg13
g228
sg15
VLiving Room
p844
sg17
g230
sg19
VSchuyler TV Stand
p845
sg21
VWayfair
p846
sbsI111
(iasset
Asset
p847
(dp848
g3
I1379
sg4
(dp849
g6
F5.5
sg7
F1.44
sg8
F3.2
ssg9
VRUSTIC
p850
sg11
g12
sg13
g228
sg15
VLiving Room
p851
sg17
g230
sg19
VPullman TV Stand
p852
sg21
VWayfair
p853
sbsI112
(iasset
Asset
p854
(dp855
g3
F79.95
sg4
(dp856
g6
F1.667
sg7
F1.667
sg8
F1.167
ssg9
VScandinavian
p857
sg11
g12
sg13
g108
sg15
VLiving Room
p858
sg17
VPoufs
p859
sg19
Vknitted silver grey pouf
p860
sg21
VCB2
p861
sbsI113
(iasset
Asset
p862
(dp863
g3
F59.95
sg4
(dp864
g6
F1.667
sg7
F0.1
sg8
F1.667
ssg9
VScandinavian
p865
sg11
g211
sg13
g212
sg15
VLiving Room
p866
sg17
g608
sg19
Vasterix geometric pillow
p867
sg21
VCB2
p868
sbsI114
(iasset
Asset
p869
(dp870
g3
F39.95
sg4
(dp871
g6
F1.667
sg7
F0.5
sg8
F1.667
ssg9
VMid Century
p872
sg11
g211
sg13
g212
sg15
VLiving Room
p873
sg17
g455
sg19
Vglitterati gold pillow
p874
sg21
VCB2
p875
sbsI115
(iasset
Asset
p876
(dp877
g3
F118.99
sg4
(dp878
g6
F1.667
sg7
F0.125
sg8
F1.667
ssg9
VScandinavian
p879
sg11
g201
sg13
g445
sg15
VLiving Room
p880
sg17
g447
sg19
VMid Century Pyramids
p881
sg21
VWayfair
p882
sbsI116
(iasset
Asset
p883
(dp884
g3
F62.99
sg4
(dp885
g6
F1.5
sg7
F0.125
sg8
I1
ssg9
VMid Century
p886
sg11
g201
sg13
g445
sg15
VLiving Room
p887
sg17
g447
sg19
VMid Century II Graphic Art
p888
sg21
VWayfair
p889
sbsI117
(iasset
Asset
p890
(dp891
g3
F55.99
sg4
(dp892
g6
F1.5
sg7
F0.125
sg8
I1
ssg9
VMid Century
p893
sg11
g201
sg13
g445
sg15
VLiving Room
p894
sg17
g447
sg19
VMid Century - Three Trees
p895
sg21
VWayfair
p896
sbsI118
(iasset
Asset
p897
(dp898
g3
I0
sg4
(dp899
g6
F2.46
sg7
F2.46
sg8
F2.62
ssg9
VModern
p900
sg11
g12
sg13
g108
sg15
VLiving Room
p901
sg17
g321
sg19
VLounge chair
p902
sg21
VWayfair
p903
sbsI119
(iasset
Asset
p904
(dp905
g3
I435
sg4
(dp906
g6
F4.5
sg7
F0.05
sg8
I6
ssg9
VIndustrial
p907
sg11
g201
sg13
g445
sg15
VLiving Room
p908
sg17
g447
sg19
VLouise Gray Quilt
p909
sg21
VWest Elm
p910
sbsI120
(iasset
Asset
p911
(dp912
g3
I250
sg4
(dp913
g6
I3
sg7
F0.05
sg8
I4
ssg9
VIndustrial
p914
sg11
g201
sg13
g445
sg15
VLiving Room
p915
sg17
g447
sg19
VLouise Gray Little Quilt
p916
sg21
VWest Elm
p917
sbsI121
(iasset
Asset
p918
(dp919
g3
I239
sg4
(dp920
g6
F2.16
sg7
F0.05
sg8
F2.83
ssg9
VModern
p921
sg11
g201
sg13
g445
sg15
VLiving Room
p922
sg17
g447
sg19
VMinted - Seawall
p923
sg21
VWest Elm
p924
sbsI122
(iasset
Asset
p925
(dp926
g3
I263
sg4
(dp927
g6
I3
sg7
F0.08
sg8
I2
ssg9
VModern
p928
sg11
g201
sg13
g445
sg15
VLiving Room
p929
sg17
g447
sg19
VThe Arts Capsule
p930
sg21
VWest Elm
p931
sbsI123
(iasset
Asset
p932
(dp933
g3
I139
sg4
(dp934
g6
F2.16
sg7
F0.41
sg8
F3.08
ssg9
VModern
p935
sg11
g201
sg13
g445
sg15
VLiving Room
p936
sg17
g447
sg19
VPapier-Mache Wall Art - Geo Panel
p937
sg21
VWest Elm
p938
sbsI124
(iasset
Asset
p939
(dp940
g3
I139
sg4
(dp941
g6
F2.16
sg7
F0.41
sg8
F3.08
ssg9
VModern
p942
sg11
g201
sg13
g445
sg15
VLiving Room
p943
sg17
g447
sg19
VPapier-Mache Wall Art Panel 2
p944
sg21
VWest Elm
p945
sbsI125
(iasset
Asset
p946
(dp947
g3
I139
sg4
(dp948
g6
F2.16
sg7
F0.41
sg8
F3.08
ssg9
VCONTEMPORARY
p949
sg11
g201
sg13
g445
sg15
VLiving Room
p950
sg17
g447
sg19
VPapier-Mache Wall Art
p951
sg21
VWest Elm
p952
sbsI126
(iasset
Asset
p953
(dp954
g3
I29
sg4
(dp955
g6
F1.66
sg7
F0.33
sg8
F1.66
ssg9
VTRANSITIONAL
p956
sg11
g211
sg13
g212
sg15
VMaster Bedroom
p957
sg17
g608
sg19
VPressed Velvet Pillow Covers
p958
sg21
VWest Elm
p959
sbsI127
(iasset
Asset
p960
(dp961
g3
I29
sg4
(dp962
g6
F1.66
sg7
F0.33
sg8
F1.66
ssg9
VTRANSITIONAL
p963
sg11
g211
sg13
g212
sg15
VLiving Room
p964
sg17
g608
sg19
VPressed Velvet Covers
p965
sg21
VWest Elm
p966
sbsI128
(iasset
Asset
p967
(dp968
g3
I30
sg4
(dp969
g6
F1.66
sg7
F0.33
sg8
F1.66
ssg9
VModern
p970
sg11
g211
sg13
g212
sg15
VLiving Room
p971
sg17
VCushion Covers
p972
sg19
VIkat Pillow Covers
p973
sg21
VWest Elm
p974
sbsI129
(iasset
Asset
p975
(dp976
g3
I155
sg4
(dp977
g6
F1.75
sg7
F0.33
sg8
I1
ssg9
VModern
p978
sg11
g211
sg13
g212
sg15
VLiving Room
p979
sg17
g455
sg19
VLouise Gray Pillow
p980
sg21
VWest Elm
p981
sbsI130
(iasset
Asset
p982
(dp983
g3
I999
sg4
(dp984
g6
I8
sg7
I10
sg8
F0.0625
ssg9
VART DECO
p985
sg11
g211
sg13
g365
sg15
VLiving Room
p986
sg17
g593
sg19
VExpressionist Special Order Rug
p987
sg21
VWest Elm
p988
sbsI131
(iasset
Asset
p989
(dp990
g3
I44
sg4
(dp991
g6
F1.75
sg7
I0
sg8
I1
ssg9
VIndian Contemporary
p992
sg11
g211
sg13
g212
sg15
VMaster Bedroom
p993
sg17
g608
sg19
VDeco Tile Pillow Covers
p994
sg21
VWest Elm
p995
sbsI132
(iasset
Asset
p996
(dp997
g3
I1399
sg4
(dp998
g6
I8
sg7
I10
sg8
F0.0625
ssg9
VART DECO
p999
sg11
g211
sg13
g365
sg15
VGuest Room
p1000
sg17
g593
sg19
VAbstract Lines Wool Rug
p1001
sg21
VWest Elm
p1002
sbsI133
(iasset
Asset
p1003
(dp1004
g3
I699
sg4
(dp1005
g6
I8
sg7
I10
sg8
F0.0625
ssg9
VBohemian
p1006
sg11
g211
sg13
g365
sg15
VLiving Room
p1007
sg17
g593
sg19
VJanus Ikat Rug
p1008
sg21
VWest Elm
p1009
sbsI134
(iasset
Asset
p1010
(dp1011
g3
I39
sg4
(dp1012
g6
F1.5
sg7
F0.33
sg8
F1.5
ssg9
VModern
p1013
sg11
g211
sg13
g212
sg15
VMaster Bedroom
p1014
sg17
g608
sg19
VOasis Brocade Pillow Cover
p1015
sg21
VWest Elm
p1016
sbsI135
(iasset
Asset
p1017
(dp1018
g3
I899
sg4
(dp1019
g6
I8
sg7
I10
sg8
F0.0625
ssg9
VScandinavian
p1020
sg11
g211
sg13
g365
sg15
VKids Room
p1021
sg17
g593
sg19
VBaby Souk Wool Nursery Rug
p1022
sg21
VWest Elm
p1023
sbsI136
(iasset
Asset
p1024
(dp1025
g3
I699
sg4
(dp1026
g6
I8
sg7
I10
sg8
F0.0625
ssg9
VModern
p1027
sg11
g211
sg13
g365
sg15
VLiving Room
p1028
sg17
g593
sg19
VLore Rug
p1029
sg21
VWest Elm
p1030
sbsI137
(iasset
Asset
p1031
(dp1032
g3
I39
sg4
(dp1033
g6
F1.5
sg7
F0.33
sg8
F1.5
ssg9
VTRANSITIONAL
p1034
sg11
g211
sg13
g212
sg15
VGuest Room
p1035
sg17
g608
sg19
VPinwheel Pillow Cover
p1036
sg21
VWest Elm
p1037
sbsI138
(iasset
Asset
p1038
(dp1039
g3
I799
sg4
(dp1040
g6
I8
sg7
I10
sg8
F0.0625
ssg9
VScandinavian
p1041
sg11
g211
sg13
g365
sg15
VLiving Room
p1042
sg17
g593
sg19
VAerial Rug
p1043
sg21
VWest Elm
p1044
sbsI139
(iasset
Asset
p1045
(dp1046
g3
I599
sg4
(dp1047
g6
I8
sg7
I10
sg8
F0.0625
ssg9
VScandinavian
p1048
sg11
g211
sg13
g365
sg15
VLiving Room
p1049
sg17
g593
sg19
VIkat Mix Indoor Outdoor Rug
p1050
sg21
VWest Elm
p1051
sbsI140
(iasset
Asset
p1052
(dp1053
g3
I799
sg4
(dp1054
g6
I8
sg7
I10
sg8
F0.0625
ssg9
VECCENTRIC / ECLECTIC
p1055
sg11
g211
sg13
g365
sg15
VLiving Room
p1056
sg17
g593
sg19
VDeco Facade Rug
p1057
sg21
VWest Elm
p1058
sbsI141
(iasset
Asset
p1059
(dp1060
g3
I39
sg4
(dp1061
g6
F1.75
sg7
F0.33
sg8
I1
ssg9
VIndian Contemporary
p1062
sg11
g211
sg13
g212
sg15
VLiving Room
p1063
sg17
g608
sg19
VEmbellished Brocade
p1064
sg21
VWest Elm
p1065
sbsI142
(iasset
Asset
p1066
(dp1067
g3
I999
sg4
(dp1068
g6
I8
sg7
I10
sg8
F0.0625
ssg9
VModern
p1069
sg11
g211
sg13
g365
sg15
VLiving Room
p1070
sg17
g593
sg19
VLucent Rug-Blue Teal
p1071
sg21
VWest Elm
p1072
sbsI143
(iasset
Asset
p1073
(dp1074
g3
I599
sg4
(dp1075
g6
I8
sg7
I10
sg8
F0.0625
ssg9
VScandinavian
p1076
sg11
g211
sg13
g365
sg15
VLiving Room
p1077
sg17
g593
sg19
VBrushed Palette Rug
p1078
sg21
VWest Elm
p1079
sbsI144
(iasset
Asset
p1080
(dp1081
g3
I699
sg4
(dp1082
g6
I8
sg7
I10
sg8
F0.0625
ssg9
VTRANSITIONAL
p1083
sg11
g211
sg13
g365
sg15
VLiving Room
p1084
sg17
g593
sg19
VMontane Rug
p1085
sg21
VWest Elm
p1086
sbsI145
(iasset
Asset
p1087
(dp1088
g3
I49
sg4
(dp1089
g6
F1.33
sg7
F0.33
sg8
F1.33
ssg9
VModern
p1090
sg11
g211
sg13
g212
sg15
VMaster Bedroom
p1091
sg17
g608
sg19
VBrooch Pillow Cover
p1092
sg21
VWest Elm
p1093
sbsI146
(iasset
Asset
p1094
(dp1095
g3
I999
sg4
(dp1096
g6
I8
sg7
I10
sg8
F0.0625
ssg9
VModern
p1097
sg11
g211
sg13
g365
sg15
VLiving Room
p1098
sg17
g593
sg19
VLucent Rug-Pink Grapefruit
p1099
sg21
VWest Elm
p1100
sbsI147
(iasset
Asset
p1101
(dp1102
g3
I1199
sg4
(dp1103
g6
I8
sg7
I10
sg8
F0.0625
ssg9
VScandinavian
p1104
sg11
g211
sg13
g365
sg15
VLiving Room
p1105
sg17
g593
sg19
VFlame Rug
p1106
sg21
VWest Elm
p1107
sbsI148
(iasset
Asset
p1108
(dp1109
g3
I699
sg4
(dp1110
g6
I8
sg7
I10
sg8
F0.0625
ssg9
VCOASTAL CASUAL
p1111
sg11
g211
sg13
g365
sg15
VLiving Room
p1112
sg17
g593
sg19
VCampo Rug
p1113
sg21
VWest Elm
p1114
sbsI149
(iasset
Asset
p1115
(dp1116
g3
I24
sg4
(dp1117
g6
F2.16
sg7
F0.33
sg8
F1.16
ssg9
VModern
p1118
sg11
g211
sg13
g212
sg15
VMaster Bedroom
p1119
sg17
g608
sg19
VDistressed Rug Pillow Covers
p1120
sg21
VWest Elm
p1121
sbsI150
(iasset
Asset
p1122
(dp1123
g3
I399
sg4
(dp1124
g6
I8
sg7
I10
sg8
F0.0625
ssg9
VART DECO
p1125
sg11
g211
sg13
g365
sg15
VLiving Room
p1126
sg17
g593
sg19
VMixed Stripes Cotton Dhurrie-Multi
p1127
sg21
VWest Elm
p1128
sbsI151
(iasset
Asset
p1129
(dp1130
g3
I899
sg4
(dp1131
g6
I8
sg7
I10
sg8
F0.0625
ssg9
VScandinavian
p1132
sg11
g211
sg13
g365
sg15
VLiving Room
p1133
sg17
g593
sg19
VRoyal Grid Shag Rug-Platinum
p1134
sg21
VWest Elm
p1135
sbsI152
(iasset
Asset
p1136
(dp1137
g3
I39
sg4
(dp1138
g6
I1
sg7
F0.33
sg8
F1.75
ssg9
VModern
p1139
sg11
g211
sg13
g212
sg15
VLiving Room
p1140
sg17
g608
sg19
VWater Garden Pillow Cover
p1141
sg21
VWest Elm
p1142
sbsI153
(iasset
Asset
p1143
(dp1144
g3
I799
sg4
(dp1145
g6
I8
sg7
I10
sg8
F0.0625
ssg9
VScandinavian
p1146
sg11
g211
sg13
g365
sg15
VLiving Room
p1147
sg17
g593
sg19
VStone Tile Rug
p1148
sg21
VWest Elm
p1149
sbsI154
(iasset
Asset
p1150
(dp1151
g3
I599
sg4
(dp1152
g6
I8
sg7
I10
sg8
F0.0625
ssg9
VModern
p1153
sg11
g211
sg13
g365
sg15
VLiving Room
p1154
sg17
g593
sg19
VDistressed Foliage Rug-Pewter
p1155
sg21
VWest Elm
p1156
sbsI155
(iasset
Asset
p1157
(dp1158
g3
I1199
sg4
(dp1159
g6
I8
sg7
I10
sg8
F0.0625
ssg9
VCOASTAL CASUAL
p1160
sg11
g211
sg13
g365
sg15
VLiving Room
p1161
sg17
g593
sg19
VDistressed Arabesque Wool Rug-Midnight
p1162
sg21
VWest Elm
p1163
sbsI156
(iasset
Asset
p1164
(dp1165
g3
I499
sg4
(dp1166
g6
F3.16
sg7
F3.16
sg8
I3
ssg9
VCONTEMPORARY
p1167
sg11
g52
sg13
g53
sg15
VLiving Room
p1168
sg17
g55
sg19
VLight Rods LED Chandelier
p1169
sg21
VWest Elm
p1170
sbsI157
(iasset
Asset
p1171
(dp1172
g3
I599
sg4
(dp1173
g6
I8
sg7
I10
sg8
F0.0625
ssg9
VCOASTAL CASUAL
p1174
sg11
g211
sg13
g365
sg15
VLiving Room
p1175
sg17
g593
sg19
VSummit Indoor/Outdoor Rug
p1176
sg21
VWest Elm
p1177
sbsI158
(iasset
Asset
p1178
(dp1179
g3
I139
sg4
(dp1180
g6
F1.16
sg7
F1.16
sg8
I2
ssg9
VTRANSITIONAL
p1181
sg11
g52
sg13
g53
sg15
VMaster Bedroom
p1182
sg17
g696
sg19
VSphere + Stem Pendant
p1183
sg21
VWest Elm
p1184
sbsI159
(iasset
Asset
p1185
(dp1186
g3
I139
sg4
(dp1187
g6
F1.16
sg7
F1.16
sg8
I2
ssg9
VTRANSITIONAL
p1188
sg11
g52
sg13
g53
sg15
VMaster Bedroom
p1189
sg17
g696
sg19
VSphere + Stem Pendant
p1190
sg21
VWest Elm
p1191
sbsI160
(iasset
Asset
p1192
(dp1193
g3
I209
sg4
(dp1194
g6
I0
sg7
F1.22
sg8
F5.16
ssg9
VCONTEMPORARY
p1195
sg11
g52
sg13
g77
sg15
VLiving Room
p1196
sg17
g79
sg19
VSphere + Stem Floor Lamp
p1197
sg21
VWest Elm
p1198
sbsI161
(iasset
Asset
p1199
(dp1200
g3
I599
sg4
(dp1201
g6
I8
sg7
I10
sg8
F0.0625
ssg9
VCOASTAL CASUAL
p1202
sg11
g211
sg13
g365
sg15
VLiving Room
p1203
sg17
g593
sg19
VVerve Rug-Midnight
p1204
sg21
VWest Elm
p1205
sbsI162
(iasset
Asset
p1206
(dp1207
g3
I599
sg4
(dp1208
g6
I8
sg7
I10
sg8
F0.0625
ssg9
VCOASTAL CASUAL
p1209
sg11
g211
sg13
g365
sg15
VLiving Room
p1210
sg17
g593
sg19
VSun-Kissed Landscape Rug-Light Pool
p1211
sg21
VWest Elm
p1212
sbsI163
(iasset
Asset
p1213
(dp1214
g3
I799
sg4
(dp1215
g6
F2.58
sg7
F2.58
sg8
I3
ssg9
VTRANSITIONAL
p1216
sg11
g52
sg13
g53
sg15
VLiving Room
p1217
sg17
g55
sg19
VPelle Chandelier
p1218
sg21
VWest Elm
p1219
sbsI164
(iasset
Asset
p1220
(dp1221
g3
I999
sg4
(dp1222
g6
I8
sg7
I10
sg8
F0.0625
ssg9
VTRANSITIONAL
p1223
sg11
g211
sg13
g365
sg15
VLiving Room
p1224
sg17
g593
sg19
VSunset Lake Rug
p1225
sg21
VWest Elm
p1226
sbsI165
(iasset
Asset
p1227
(dp1228
g3
I999
sg4
(dp1229
g6
I8
sg7
I10
sg8
F0.0625
ssg9
VScandinavian
p1230
sg11
g211
sg13
g365
sg15
VLiving Room
p1231
sg17
g593
sg19
VRani Rug-Midnight Navy
p1232
sg21
VWest Elm
p1233
sbsI166
(iasset
Asset
p1234
(dp1235
g3
I349
sg4
(dp1236
g6
I6
sg7
I6
sg8
F0.0625
ssg9
VCONTEMPORARY
p1237
sg11
g211
sg13
g365
sg15
VLiving Room
p1238
sg17
g593
sg19
VWatermark Rug - Round
p1239
sg21
VWest Elm
p1240
sbsI167
(iasset
Asset
p1241
(dp1242
g3
I599
sg4
(dp1243
g6
F3.18
sg7
F3.18
sg8
F3.33
ssg9
VCONTEMPORARY
p1244
sg11
g52
sg13
g53
sg15
VLiving Room
p1245
sg17
g55
sg19
VChampignon Chandelier
p1246
sg21
VWest Elm
p1247
sbsI168
(iasset
Asset
p1248
(dp1249
g3
I419
sg4
(dp1250
g6
I3
sg7
I3
sg8
F1.45
ssg9
VModern
p1251
sg11
g52
sg13
g53
sg15
VLiving Room
p1252
sg17
g55
sg19
VSphere + Stem Chandelier
p1253
sg21
VWest Elm
p1254
sbsI169
(iasset
Asset
p1255
(dp1256
g3
I349
sg4
(dp1257
g6
I6
sg7
I6
sg8
F0.0625
ssg9
VModern
p1258
sg11
g211
sg13
g365
sg15
VLiving Room
p1259
sg17
g593
sg19
VDistressed Rococo Wool Rug - Round
p1260
sg21
VWest Elm
p1261
sbsI170
(iasset
Asset
p1262
(dp1263
g3
F149.99
sg4
(dp1264
g6
F1.75
sg7
F2.25
sg8
F3.41
ssg9
VHollywood Regency
p1265
sg11
g12
sg13
g108
sg15
VMaster Bedroom
p1266
sg17
g110
sg19
VChicago Parsons Chair- Dark Gray Fabric
p1267
sg21
VWayfair
p1268
sbsI171
(iasset
Asset
p1269
(dp1270
g3
F299.99
sg4
(dp1271
g6
F1.75
sg7
F2.25
sg8
F3.41
ssg9
VTRANSITIONAL
p1272
sg11
g12
sg13
g108
sg15
VLiving Room
p1273
sg17
g110
sg19
VChicago Parsons Chair
p1274
sg21
VWayfair
p1275
sbsI172
(iasset
Asset
p1276
(dp1277
g3
F193.99
sg4
(dp1278
g6
F1.91
sg7
F2.33
sg8
F2.91
ssg9
VCOASTAL CASUAL
p1279
sg11
g12
sg13
g108
sg15
VLiving Room
p1280
sg17
g110
sg19
VTeal Geometric-Trellis Swoop Slipper Chair
p1281
sg21
VWayfair
p1282
sbsI173
(iasset
Asset
p1283
(dp1284
g3
F193.99
sg4
(dp1285
g6
F2.91
sg7
F2.33
sg8
F2.83
ssg9
VECCENTRIC / ECLECTIC
p1286
sg11
g12
sg13
g108
sg15
VLiving Room
p1287
sg17
g110
sg19
VCoal Gray Ikat-Trellis Swoop Slipper Chair
p1288
sg21
VWayfair
p1289
sbsI174
(iasset
Asset
p1290
(dp1291
g3
I145
sg4
(dp1292
g6
F0.83
sg7
F0.83
sg8
F5.58
ssg9
VCONTEMPORARY
p1293
sg11
g52
sg13
g77
sg15
VLiving Room
p1294
sg17
g79
sg19
VHugo Floor Lamp
p1295
sg21
VWayfair
p1296
sbsI175
(iasset
Asset
p1297
(dp1298
g3
F193.99
sg4
(dp1299
g6
F1.91
sg7
F2.33
sg8
F2.83
ssg9
VECCENTRIC / ECLECTIC
p1300
sg11
g12
sg13
g108
sg15
VMaster Bedroom
p1301
sg17
g110
sg19
VGreen White Geometric-Trellis Swoop Slipper Chair
p1302
sg21
VWayfair
p1303
sbsI176
(iasset
Asset
p1304
(dp1305
g3
I95
sg4
(dp1306
g6
F2.5
sg7
F2.5
sg8
F4.25
ssg9
VIndustrial
p1307
sg11
g52
sg13
g77
sg15
VLiving Room
p1308
sg17
g79
sg19
VDormont Floor Lamp
p1309
sg21
VWayfair
p1310
sbsI177
(iasset
Asset
p1311
(dp1312
g3
F138.99
sg4
(dp1313
g6
F2.08
sg7
F2.31
sg8
F2.75
ssg9
VECCENTRIC / ECLECTIC
p1314
sg11
g12
sg13
g108
sg15
VLiving Room
p1315
sg17
g110
sg19
VViverette Swoop Armchair
p1316
sg21
VWayfair
p1317
sbsI178
(iasset
Asset
p1318
(dp1319
g3
F157.99
sg4
(dp1320
g6
F2.08
sg7
F2.31
sg8
F2.77
ssg9
VSHABBY-CHIC
p1321
sg11
g12
sg13
g108
sg15
VLiving Room
p1322
sg17
g110
sg19
VCrainville Swoop Armchair
p1323
sg21
VWayfair
p1324
sbsI179
(iasset
Asset
p1325
(dp1326
g3
I69
sg4
(dp1327
g6
F1.16
sg7
F1.16
sg8
F4.91
ssg9
VIndian Contemporary
p1328
sg11
g52
sg13
g77
sg15
VLiving Room
p1329
sg17
g79
sg19
VBridgers Floor Lmap
p1330
sg21
VWayfair
p1331
sbsI180
(iasset
Asset
p1332
(dp1333
g3
F141.99
sg4
(dp1334
g6
F2.08
sg7
F2.31
sg8
F2.77
ssg9
VHollywood Regency
p1335
sg11
g12
sg13
g108
sg15
VMaster Bedroom
p1336
sg17
g110
sg19
VLuxton Swoop Armchair
p1337
sg21
VWayfair
p1338
sbsI181
(iasset
Asset
p1339
(dp1340
g3
F187.99
sg4
(dp1341
g6
F1.8
sg7
F2.49
sg8
F2.71
ssg9
VCOASTAL CASUAL
p1342
sg11
g12
sg13
g108
sg15
VLiving Room
p1343
sg17
g110
sg19
VReedsport Slipper Chair
p1344
sg21
VWayfair
p1345
sbsI182
(iasset
Asset
p1346
(dp1347
g3
I303
sg4
(dp1348
g6
I2
sg7
F1.5
sg8
F4.41
ssg9
VMid Century
p1349
sg11
g12
sg13
g43
sg15
VLiving Room
p1350
sg17
g45
sg19
VCastagnier Chest
p1351
sg21
VWayfair
p1352
sbsI183
(iasset
Asset
p1353
(dp1354
g3
I450
sg4
(dp1355
g6
F3.5
sg7
F1.5
sg8
F3.16
ssg9
VCONTEMPORARY
p1356
sg11
g12
sg13
g43
sg15
VLiving Room
p1357
sg17
g45
sg19
VLisle Drawer Chest
p1358
sg21
VWayfair
p1359
sbsI184
(iasset
Asset
p1360
(dp1361
g3
F132.99
sg4
(dp1362
g6
F1.6
sg7
F1.08
sg8
F2.23
ssg9
VHollywood Regency
p1363
sg11
g12
sg13
g27
sg15
VKids Room
p1364
sg17
g29
sg19
VPhilipston 2 Drawer Nightstand-Hot Red
p1365
sg21
VWayfair
p1366
sbsI185
(iasset
Asset
p1367
(dp1368
g3
F132.99
sg4
(dp1369
g6
F1.6
sg7
F1.08
sg8
F2.23
ssg9
VCOASTAL CASUAL
p1370
sg11
g12
sg13
g27
sg15
VMaster Bedroom
p1371
sg17
g29
sg19
VPhilipston 2 Drawer Nightstand-French Gray
p1372
sg21
VWayfair
p1373
sbsI186
(iasset
Asset
p1374
(dp1375
g3
F132.99
sg4
(dp1376
g6
F1.6
sg7
F1.08
sg8
F2.23
ssg9
VCOASTAL CASUAL
p1377
sg11
g12
sg13
g27
sg15
VMaster Bedroom
p1378
sg17
g29
sg19
VPhilipston 2 Drawer Nightstand-Barn Blue
p1379
sg21
VWayfair
p1380
sbsI187
(iasset
Asset
p1381
(dp1382
g3
I450
sg4
(dp1383
g6
F3.5
sg7
F1.5
sg8
F3.16
ssg9
VTRANSITIONAL
p1384
sg11
g12
sg13
g43
sg15
VLiving Room
p1385
sg17
g45
sg19
VLisle Media Chest
p1386
sg21
VWayfair
p1387
sbsI188
(iasset
Asset
p1388
(dp1389
g3
F132.99
sg4
(dp1390
g6
F1.6
sg7
F1.08
sg8
F2.23
ssg9
VScandinavian
p1391
sg11
g12
sg13
g27
sg15
VMaster Bedroom
p1392
sg17
g29
sg19
VPhilipston 2 Drawer Nightstand-Barley
p1393
sg21
VWayfair
p1394
sbsI189
(iasset
Asset
p1395
(dp1396
g3
I640
sg4
(dp1397
g6
I4
sg7
F1.43
sg8
F3.33
ssg9
VCONTEMPORARY
p1398
sg11
g12
sg13
g43
sg15
VMaster Bedroom
p1399
sg17
g45
sg19
VDella Double Dresser
p1400
sg21
VWayfair
p1401
sbsI190
(iasset
Asset
p1402
(dp1403
g3
F132.99
sg4
(dp1404
g6
F1.5
sg7
F1.08
sg8
F2.23
ssg9
VScandinavian
p1405
sg11
g12
sg13
g27
sg15
VGuest Room
p1406
sg17
g29
sg19
VPhilipston 2 Drawer Nightstand-Antique White
p1407
sg21
VWayfair
p1408
sbsI191
(iasset
Asset
p1409
(dp1410
g3
F369.99
sg4
(dp1411
g6
F2.61
sg7
F1.667
sg8
F2.5
ssg9
VModern
p1412
sg11
g12
sg13
g27
sg15
VMaster Bedroom
p1413
sg17
g29
sg19
VDobson Nightstand-Fog
p1414
sg21
VWayfair
p1415
sbsI192
(iasset
Asset
p1416
(dp1417
g3
I640
sg4
(dp1418
g6
I4
sg7
F1.18
sg8
F3.33
ssg9
VCONTEMPORARY
p1419
sg11
g12
sg13
g43
sg15
VMaster Bedroom
p1420
sg17
g45
sg19
VDella Dresser
p1421
sg21
VWayfair
p1422
sbsI193
(iasset
Asset
p1423
(dp1424
g3
F369.99
sg4
(dp1425
g6
F2.61
sg7
F1.667
sg8
F2.5
ssg9
VCOASTAL CASUAL
p1426
sg11
g12
sg13
g27
sg15
VMaster Bedroom
p1427
sg17
g29
sg19
VDobson Nightstand
p1428
sg21
VWayfair
p1429
sbsI194
(iasset
Asset
p1430
(dp1431
g3
F409.99
sg4
(dp1432
g6
F2.41
sg7
F1.41
sg8
F2.46
ssg9
VTraditional
p1433
sg11
g12
sg13
g27
sg15
VMaster Bedroom
p1434
sg17
g29
sg19
VRosehill 3 Drawer Bachelor's Nightstand-Black
p1435
sg21
VWayfair
p1436
sbsI195
(iasset
Asset
p1437
(dp1438
g3
I670
sg4
(dp1439
g6
F2.91
sg7
F1.66
sg8
F4.02
ssg9
VTRANSITIONAL
p1440
sg11
g12
sg13
g43
sg15
VMaster Bedroom
p1441
sg17
g45
sg19
VEnrico Chest
p1442
sg21
VWayfair
p1443
sbsI196
(iasset
Asset
p1444
(dp1445
g3
F345.99
sg4
(dp1446
g6
F2.41
sg7
F1.41
sg8
F2.46
ssg9
VTraditional
p1447
sg11
g12
sg13
g27
sg15
VMaster Bedroom
p1448
sg17
g29
sg19
VRosehill 3 Drawer Bachelor's Nightstand
p1449
sg21
VWayfair
p1450
sbsI197
(iasset
Asset
p1451
(dp1452
g3
I538
sg4
(dp1453
g6
F4.25
sg7
F1.66
sg8
I3
ssg9
VTRANSITIONAL
p1454
sg11
g12
sg13
g43
sg15
VLiving Room
p1455
sg17
g45
sg19
VDobson Drawer Dresser
p1456
sg21
VWayfair
p1457
sbsI198
(iasset
Asset
p1458
(dp1459
g3
F309.99
sg4
(dp1460
g6
F2.41
sg7
F1.33
sg8
F3.54
ssg9
VTraditional
p1461
sg11
g12
sg13
g27
sg15
VGuest Room
p1462
sg17
g29
sg19
VEllis 3 Drawer Bachelor's Chest-Cappuccino
p1463
sg21
VWayfair
p1464
sbsI199
(iasset
Asset
p1465
(dp1466
g3
I629
sg4
(dp1467
g6
F5.5
sg7
F1.5
sg8
F3.41
ssg9
VIndustrial
p1468
sg11
g12
sg13
g43
sg15
VMaster Bedroom
p1469
sg17
g45
sg19
VHilton Double Dresser
p1470
sg21
VWayfair
p1471
sbsI200
(iasset
Asset
p1472
(dp1473
g3
F337.99
sg4
(dp1474
g6
F2.41
sg7
F1.375
sg8
F2.54
ssg9
VModern
p1475
sg11
g12
sg13
g27
sg15
VMaster Bedroom
p1476
sg17
g29
sg19
VEllis 3 Drawer Bachelor's Chest
p1477
sg21
VWayfair
p1478
sbsI201
(iasset
Asset
p1479
(dp1480
g3
F160.99
sg4
(dp1481
g6
I2
sg7
F1.33
sg8
I2
ssg9
VTRANSITIONAL
p1482
sg11
g12
sg13
g27
sg15
VGuest Room
p1483
sg17
g29
sg19
VJuno 2 Drawer Nightstand
p1484
sg21
VWayfair
p1485
sbsI202
(iasset
Asset
p1486
(dp1487
g3
I739
sg4
(dp1488
g6
F5.1
sg7
F1.54
sg8
F3.35
ssg9
VScandinavian
p1489
sg11
g12
sg13
g43
sg15
VMaster Bedroom
p1490
sg17
g45
sg19
VHorton Drawer
p1491
sg21
VWayfair
p1492
sbsI203
(iasset
Asset
p1493
(dp1494
g3
F299.99
sg4
(dp1495
g6
F2.58
sg7
F1.33
sg8
F2.5
ssg9
VCOASTAL CASUAL
p1496
sg11
g12
sg13
g27
sg15
VMaster Bedroom
p1497
sg17
g29
sg19
VKennison 3 Drawer Nightstand-Antique Gray
p1498
sg21
VWayfair
p1499
sbsI204
(iasset
Asset
p1500
(dp1501
g3
F302.99
sg4
(dp1502
g6
F2.58
sg7
F1.33
sg8
F2.5
ssg9
VTraditional
p1503
sg11
g12
sg13
g27
sg15
VGuest Room
p1504
sg17
g29
sg19
VKennison 3 Drawer Nightstand-Tobacco
p1505
sg21
VWayfair
p1506
sbsI205
(iasset
Asset
p1507
(dp1508
g3
I650
sg4
(dp1509
g6
F4.5
sg7
F1.5
sg8
F3.33
ssg9
VIndian Contemporary
p1510
sg11
g12
sg13
g43
sg15
VMaster Bedroom
p1511
sg17
g45
sg19
VTroxell Dresser
p1512
sg21
VWayfair
p1513
sbsI206
(iasset
Asset
p1514
(dp1515
g3
F369.99
sg4
(dp1516
g6
F2.5
sg7
F1.41
sg8
F2.5
ssg9
VTraditional
p1517
sg11
g12
sg13
g27
sg15
VMaster Bedroom
p1518
sg17
g29
sg19
VBlenheim 2 Drawer Nightstand
p1519
sg21
VWayfair
p1520
sbsI207
(iasset
Asset
p1521
(dp1522
g3
F187.99
sg4
(dp1523
g6
F2.21
sg7
F1.62
sg8
F2.14
ssg9
VTRANSITIONAL
p1524
sg11
g12
sg13
g27
sg15
VMaster Bedroom
p1525
sg17
g29
sg19
VPinellas 1 Drawer Nightstand-Curado Cherry
p1526
sg21
VWayfair
p1527
sbsI208
(iasset
Asset
p1528
(dp1529
g3
F166.99
sg4
(dp1530
g6
F2.21
sg7
F1.62
sg8
F2.14
ssg9
VScandinavian
p1531
sg11
g12
sg13
g27
sg15
VMaster Bedroom
p1532
sg17
g29
sg19
VPinellas 1 Drawer Nightstand-Antiqued White
p1533
sg21
VWayfair
p1534
sbsI209
(iasset
Asset
p1535
(dp1536
g3
F166.99
sg4
(dp1537
g6
F2.21
sg7
F1.62
sg8
F2.14
ssg9
VMid Century
p1538
sg11
g12
sg13
g27
sg15
VMaster Bedroom
p1539
sg17
g70
sg19
VPinellas 1 Drawer Nightstand-Antiqued Black
p1540
sg21
VWayfair
p1541
sbsI210
(iasset
Asset
p1542
(dp1543
g3
I730
sg4
(dp1544
g6
F4.83
sg7
F0.08
sg8
F2.83
ssg9
VIndian Contemporary
p1545
sg11
g12
sg13
g43
sg15
VMaster Bedroom
p1546
sg17
g45
sg19
VCoalcliff Drawer Chest
p1547
sg21
VWayfair
p1548
sbsI211
(iasset
Asset
p1549
(dp1550
g3
F166.99
sg4
(dp1551
g6
F2.21
sg7
F1.62
sg8
F2.14
ssg9
VScandinavian
p1552
sg11
g12
sg13
g27
sg15
VMaster Bedroom
p1553
sg17
g29
sg19
VPinellas 1 Drawer Nightstand-Salt Oak
p1554
sg21
VWayfair
p1555
sbsI212
(iasset
Asset
p1556
(dp1557
g3
F118.99
sg4
(dp1558
g6
F1.33
sg7
F1.33
sg8
F2.41
ssg9
VTRANSITIONAL
p1559
sg11
g12
sg13
g27
sg15
VMaster Bedroom
p1560
sg17
g29
sg19
VYvelines 1 Drawer Nightstand
p1561
sg21
VWayfair
p1562
sbsI213
(iasset
Asset
p1563
(dp1564
g3
I849
sg4
(dp1565
g6
F3.5
sg7
F1.58
sg8
F4.5
ssg9
VIndian Contemporary
p1566
sg11
g12
sg13
g43
sg15
VLiving Room
p1567
sg17
g45
sg19
VBristol Chest
p1568
sg21
VWayfair
p1569
sbsI214
(iasset
Asset
p1570
(dp1571
g3
F346.99
sg4
(dp1572
g6
F2.08
sg7
F1.5
sg8
F2.25
ssg9
VTraditional
p1573
sg11
g12
sg13
g27
sg15
VMaster Bedroom
p1574
sg17
g29
sg19
VBridgton 2 Drawer Nightstand-Cinnamon
p1575
sg21
VWayfair
p1576
sbsI215
(iasset
Asset
p1577
(dp1578
g3
F319.99
sg4
(dp1579
g6
F2.08
sg7
F1.5
sg8
F2.25
ssg9
VTraditional
p1580
sg11
g12
sg13
g27
sg15
VMaster Bedroom
p1581
sg17
g29
sg19
VBridgton 2 Drawer Nightstand-Cinnamon Brown
p1582
sg21
VWayfair
p1583
sbsI216
(iasset
Asset
p1584
(dp1585
g3
I400
sg4
(dp1586
g6
F2.54
sg7
F1.45
sg8
F3.29
ssg9
VIndian Contemporary
p1587
sg11
g12
sg13
g43
sg15
VLiving Room
p1588
sg17
g45
sg19
VAstra Drawer Chest
p1589
sg21
VWayfair
p1590
sbsI217
(iasset
Asset
p1591
(dp1592
g3
F434.99
sg4
(dp1593
g6
F1.833
sg7
F1.58
sg8
F2.5
ssg9
VMid Century
p1594
sg11
g12
sg13
g27
sg15
VMaster Bedroom
p1595
sg17
g29
sg19
VPond Brook Nightstand
p1596
sg21
VWayfair
p1597
sbsI218
(iasset
Asset
p1598
(dp1599
g3
I189
sg4
(dp1600
g6
F1.81
sg7
F1.56
sg8
F3.7
ssg9
VCONTEMPORARY
p1601
sg11
g12
sg13
g108
sg15
VLiving and Dining Room
p1602
sg17
g410
sg19
VCleveland Bar Stool
p1603
sg21
VWayfair
p1604
sbsI219
(iasset
Asset
p1605
(dp1606
g3
I224
sg4
(dp1607
g6
F1.91
sg7
F1.91
sg8
F3.29
ssg9
VMINIMALIST
p1608
sg11
g12
sg13
g108
sg15
VLiving and Dining Room
p1609
sg17
VBar Stools
p1610
sg19
VBelvin Bar Stool
p1611
sg21
VWayfair
p1612
sbsI220
(iasset
Asset
p1613
(dp1614
g3
I126
sg4
(dp1615
g6
F1.47
sg7
F1.76
sg8
F3.18
ssg9
VMINIMALIST
p1616
sg11
g12
sg13
g108
sg15
VLiving and Dining Room
p1617
sg17
g1610
sg19
VCeleste Bar Stool
p1618
sg21
VWayfair
p1619
sbsI221
(iasset
Asset
p1620
(dp1621
g3
F297.99
sg4
(dp1622
g6
I3
sg7
I3
sg8
F1.667
ssg9
VTRANSITIONAL
p1623
sg11
g12
sg13
g27
sg15
VLiving Room
p1624
sg17
g125
sg19
VStowe Coffee Table
p1625
sg21
VWayfair
p1626
sbsI222
(iasset
Asset
p1627
(dp1628
g3
I124
sg4
(dp1629
g6
F1.33
sg7
F1.33
sg8
I2
ssg9
VTRANSITIONAL
p1630
sg11
g12
sg13
g108
sg15
VLiving and Dining Room
p1631
sg17
g1610
sg19
VBlaney Yellow Stool
p1632
sg21
VWayfair
p1633
sbsI223
(iasset
Asset
p1634
(dp1635
g3
I193
sg4
(dp1636
g6
F1.33
sg7
F1.33
sg8
I2
ssg9
VIndustrial
p1637
sg11
g12
sg13
g108
sg15
VLiving and Dining Room
p1638
sg17
g1610
sg19
VBlaney Bar Stool
p1639
sg21
VWayfair
p1640
sbsI224
(iasset
Asset
p1641
(dp1642
g3
F186.99
sg4
(dp1643
g6
I4
sg7
I2
sg8
F1.5
ssg9
VModern
p1644
sg11
g12
sg13
g27
sg15
VLiving Room
p1645
sg17
g125
sg19
VTheodulus Coffee Table
p1646
sg21
VWayfair
p1647
sbsI225
(iasset
Asset
p1648
(dp1649
g3
I224
sg4
(dp1650
g6
F1.66
sg7
F1.52
sg8
F2.58
ssg9
VIndustrial
p1651
sg11
g12
sg13
g108
sg15
VLiving and Dining Room
p1652
sg17
g1610
sg19
VBarraute Bar Stool
p1653
sg21
VWayfair
p1654
sbsI226
(iasset
Asset
p1655
(dp1656
g3
I155
sg4
(dp1657
g6
F1.5
sg7
F1.58
sg8
F3.58
ssg9
VIndian Contemporary
p1658
sg11
g12
sg13
g108
sg15
VDining Room
p1659
sg17
g1610
sg19
VHeartwood 29 Bar Stool
p1660
sg21
VWayfair
p1661
sbsI227
(iasset
Asset
p1662
(dp1663
g3
F214.99
sg4
(dp1664
g6
F2.625
sg7
F2.625
sg8
F1.12
ssg9
VModern
p1665
sg11
g12
sg13
g27
sg15
VLiving Room
p1666
sg17
g125
sg19
VVivienne Coffee Table
p1667
sg21
VWayfair
p1668
sbsI228
(iasset
Asset
p1669
(dp1670
g3
I133
sg4
(dp1671
g6
F1.5
sg7
F1.58
sg8
F3.16
ssg9
VIndian Contemporary
p1672
sg11
g12
sg13
g108
sg15
VDining Room
p1673
sg17
g1610
sg19
VHeartwood 24 Bar Stool
p1674
sg21
VWayfair
p1675
sbsI229
(iasset
Asset
p1676
(dp1677
g3
I135
sg4
(dp1678
g6
F1.5
sg7
F1.32
sg8
F3.19
ssg9
VCONTEMPORARY
p1679
sg11
g12
sg13
g108
sg15
VDining Room
p1680
sg17
g1610
sg19
VShen Adjustable Bar Stool
p1681
sg21
VWayfair
p1682
sbsI230
(iasset
Asset
p1683
(dp1684
g3
I130
sg4
(dp1685
g6
F1.58
sg7
F1.7
sg8
F2.87
ssg9
VCONTEMPORARY
p1686
sg11
g12
sg13
g108
sg15
VLiving and Dining Room
p1687
sg17
g1610
sg19
VGrove City Bar Stool
p1688
sg21
VWayfair
p1689
sbsI231
(iasset
Asset
p1690
(dp1691
g3
I960
sg4
(dp1692
g6
F7.54
sg7
F3.03
sg8
F2.44
ssg9
VHollywood Regency
p1693
sg11
g12
sg13
g289
sg15
VLiving Room
p1694
sg17
g660
sg19
VKittrell Sofa
p1695
sg21
VWayfair
p1696
sbsI232
(iasset
Asset
p1697
(dp1698
g3
I1350
sg4
(dp1699
g6
F4.75
sg7
F3.5
sg8
I3
ssg9
VTRANSITIONAL
p1700
sg11
g12
sg13
g289
sg15
VLiving Room
p1701
sg17
g291
sg19
VDurango Landry Leather
p1702
sg21
VWayfair
p1703
sbsI233
(iasset
Asset
p1704
(dp1705
g3
I1347
sg4
(dp1706
g6
F4.75
sg7
F3.5
sg8
I3
ssg9
VTRANSITIONAL
p1707
sg11
g12
sg13
g289
sg15
VLiving Room
p1708
sg17
g291
sg19
VLandry Leather
p1709
sg21
VWayfair
p1710
sbsI234
(iasset
Asset
p1711
(dp1712
g3
F474.99
sg4
(dp1713
g6
I3
sg7
I3
sg8
F1.6
ssg9
VTraditional
p1714
sg11
g12
sg13
g27
sg15
VLiving Room
p1715
sg17
g125
sg19
VWilhoite Double Lift Top Coffee Table
p1716
sg21
VWayfair
p1717
sbsI235
(iasset
Asset
p1718
(dp1719
g3
F315.99
sg4
(dp1720
g6
F2.25
sg7
F2.25
sg8
F1.6
ssg9
VRUSTIC
p1721
sg11
g12
sg13
g27
sg15
VLiving Room
p1722
sg17
g125
sg19
VVeropeso 27 Reclaimed Coffee Table
p1723
sg21
VWayfair
p1724
sbsI236
(iasset
Asset
p1725
(dp1726
g3
I410
sg4
(dp1727
g6
F2.08
sg7
F2.33
sg8
F3.33
ssg9
VTraditional
p1728
sg11
g12
sg13
g289
sg15
VLiving Room
p1729
sg17
g291
sg19
VRosemary Settee
p1730
sg21
VWayfair
p1731
sbsI237
(iasset
Asset
p1732
(dp1733
g3
F183.99
sg4
(dp1734
g6
F2.39
sg7
F1.625
sg8
F1.64
ssg9
VModern
p1735
sg11
g12
sg13
g27
sg15
VLiving Room
p1736
sg17
g125
sg19
VAsine 2 Piece Coffee Table Set
p1737
sg21
VWayfair
p1738
sbsI238
(iasset
Asset
p1739
(dp1740
g3
I1480
sg4
(dp1741
g6
F7.33
sg7
F3.33
sg8
F3.08
ssg9
VCONTEMPORARY
p1742
sg11
g12
sg13
g289
sg15
VLiving Room
p1743
sg17
g660
sg19
VChestnut Pratt Sofa
p1744
sg21
VWayfair
p1745
sbsI239
(iasset
Asset
p1746
(dp1747
g3
I1480
sg4
(dp1748
g6
F7.33
sg7
F3.33
sg8
F3.08
ssg9
VModern
p1749
sg11
g12
sg13
g289
sg15
VLiving Room
p1750
sg17
g660
sg19
VPratt Leather Sofa
p1751
sg21
VWayfair
p1752
sbsI240
(iasset
Asset
p1753
(dp1754
g3
I720
sg4
(dp1755
g6
F6.22
sg7
F2.83
sg8
F2.87
ssg9
VCONTEMPORARY
p1756
sg11
g12
sg13
g289
sg15
VLiving Room
p1757
sg17
g660
sg19
VRhinebeck Sofa
p1758
sg21
VWayfair
p1759
sbsI241
(iasset
Asset
p1760
(dp1761
g3
F559.99
sg4
(dp1762
g6
I4
sg7
I2
sg8
F1.41
ssg9
VMid Century
p1763
sg11
g12
sg13
g27
sg15
VLiving Room
p1764
sg17
g125
sg19
VMcpherson Coffee Table
p1765
sg21
VWayfair
p1766
sbsI242
(iasset
Asset
p1767
(dp1768
g3
I372
sg4
(dp1769
g6
F6.23
sg7
F2.85
sg8
F2.65
ssg9
VModern
p1770
sg11
g12
sg13
g289
sg15
VLiving Room
p1771
sg17
VSofa cum Beds
p1772
sg19
VSpirit Lake Sleeper
p1773
sg21
VWayfair
p1774
sbsI243
(iasset
Asset
p1775
(dp1776
g3
I0
sg4
(dp1777
g6
I6
sg7
I2
sg8
I10
ssg9
VIndian Contemporary
p1778
sg11
g12
sg13
VWardrobes
p1779
sg15
VKids Room
p1780
sg17
V4 Door Wardrobes
p1781
sg19
VGreen White Wardrobe
p1782
sg21
VHomefuly
p1783
sbsI244
(iasset
Asset
p1784
(dp1785
g3
I740
sg4
(dp1786
g6
F6.62
sg7
F2.79
sg8
F2.62
ssg9
VMINIMALIST
p1787
sg11
g12
sg13
g289
sg15
VLiving Room
p1788
sg17
g660
sg19
VVera Cruz Sofa
p1789
sg21
VWayfair
p1790
sbsI245
(iasset
Asset
p1791
(dp1792
g3
I1450
sg4
(dp1793
g6
F7.33
sg7
F3.08
sg8
F2.83
ssg9
VHollywood Regency
p1794
sg11
g12
sg13
g289
sg15
VLiving Room
p1795
sg17
g660
sg19
VHawthorn Durango Marine
p1796
sg21
VWayfair
p1797
sbsI246
(iasset
Asset
p1798
(dp1799
g3
I1450
sg4
(dp1800
g6
F7.33
sg7
F3.08
sg8
F2.83
ssg9
VHollywood Regency
p1801
sg11
g12
sg13
g289
sg15
VLiving Room
p1802
sg17
g660
sg19
VHawthorn Leather Sofa
p1803
sg21
VWayfair
p1804
sbsI247
(iasset
Asset
p1805
(dp1806
g3
I1025
sg4
(dp1807
g6
F1.08
sg7
F1.08
sg8
F2.667
ssg9
VHollywood Regency
p1808
sg11
g52
sg13
g77
sg15
VMaster Bedroom
p1809
sg17
g133
sg19
V1920S ODEON CLEAR GLASS FRINGE SQUARE TABLE LAMP
p1810
sg21
VRestoration Hardware
p1811
sbsI248
(iasset
Asset
p1812
(dp1813
g3
I179
sg4
(dp1814
g6
I2
sg7
F0.33
sg8
I2
ssg9
VModern
p1815
sg11
g211
sg13
g212
sg15
VLiving Room
p1816
sg17
g608
sg19
VOUSHAK SOLID COVER
p1817
sg21
VRestoration Hardware
p1818
sbsI249
(iasset
Asset
p1819
(dp1820
g3
I3695
sg4
(dp1821
g6
F5.75
sg7
F1.667
sg8
F2.91
ssg9
VHollywood Regency
p1822
sg11
g12
sg13
g43
sg15
VMaster Bedroom
p1823
sg17
g45
sg19
VCELA SHAGREEN 6DRAWER DRESSER
p1824
sg21
VRestoration Hardware
p1825
sbsI250
(iasset
Asset
p1826
(dp1827
g3
I299
sg4
(dp1828
g6
F1.75
sg7
F0.33
sg8
F1.08
ssg9
VTRANSITIONAL
p1829
sg11
g211
sg13
g212
sg15
VLiving Room
p1830
sg17
g608
sg19
VPILLOW COVER - LUMBAR
p1831
sg21
VRestoration Hardware
p1832
sbsI251
(iasset
Asset
p1833
(dp1834
g3
I2996
sg4
(dp1835
g6
F5.58
sg7
F7.16
sg8
I4
ssg9
VHollywood Regency
p1836
sg11
g12
sg13
g14
sg15
VMaster Bedroom
p1837
sg17
g18
sg19
VCELA SHAGREEN PLATFORM BED
p1838
sg21
VRestoration Hardware
p1839
sbsI252
(iasset
Asset
p1840
(dp1841
g3
I299
sg4
(dp1842
g6
I2
sg7
F0.33
sg8
I2
ssg9
VTRANSITIONAL
p1843
sg11
g211
sg13
g212
sg15
VLiving Room
p1844
sg17
g608
sg19
VOUSHAK PILLOW COVER
p1845
sg21
VRestoration Hardware
p1846
sbsI253
(iasset
Asset
p1847
(dp1848
g3
I2195
sg4
(dp1849
g6
I3
sg7
F0.03
sg8
I4
ssg9
VModern
p1850
sg11
g191
sg13
g192
sg15
VMaster Bedroom
p1851
sg17
g194
sg19
VBELLE EPOQUE
p1852
sg21
VRestoration Hardware
p1853
sbsI254
(iasset
Asset
p1854
(dp1855
g3
I2195
sg4
(dp1856
g6
I3
sg7
F0.03
sg8
I4
ssg9
VModern
p1857
sg11
g191
sg13
g192
sg15
VMaster Bedroom
p1858
sg17
g194
sg19
VBELLE EPOQUE
p1859
sg21
VRestoration Hardware
p1860
sbsI255
(iasset
Asset
p1861
(dp1862
g3
I2195
sg4
(dp1863
g6
F3.5
sg7
F0.03
sg8
F3.5
ssg9
VHollywood Regency
p1864
sg11
g191
sg13
g192
sg15
VMaster Bedroom
p1865
sg17
g194
sg19
VLOMBARD MIRROR
p1866
sg21
VRestoration Hardware
p1867
sbsI256
(iasset
Asset
p1868
(dp1869
g3
I4950
sg4
(dp1870
g6
I6
sg7
F8.08
sg8
F4.75
ssg9
VTRANSITIONAL
p1871
sg11
g12
sg13
g14
sg15
VMaster Bedroom
p1872
sg17
g18
sg19
VCHURCHILL FABRIC BED WITH FOOTBOARD
p1873
sg21
VRestoration Hardware
p1874
sbsI257
(iasset
Asset
p1875
(dp1876
g3
I19
sg4
(dp1877
g6
F2.33
sg7
F2.5
sg8
F2.87
ssg9
VCONTEMPORARY
p1878
sg11
g12
sg13
g108
sg15
VLiving Room
p1879
sg17
g110
sg19
VRowling Chair Navy
p1880
sg21
VCasaone
p1881
sbsI258
(iasset
Asset
p1882
(dp1883
g3
I11
sg4
(dp1884
g6
F1.3
sg7
F0.65
sg8
F2.16
ssg9
VCONTEMPORARY
p1885
sg11
g52
sg13
g77
sg15
VMaster Bedroom
p1886
sg17
g133
sg19
VStep Table Lamp
p1887
sg21
VCasaone
p1888
sbsI259
(iasset
Asset
p1889
(dp1890
g3
I42
sg4
(dp1891
g6
F2.66
sg7
F1.33
sg8
F4.58
ssg9
VIndustrial
p1892
sg11
g12
sg13
g43
sg15
VMaster Bedroom
p1893
sg17
g45
sg19
VAbbott 5 Drawer Chest
p1894
sg21
VCasaone
p1895
sbsI260
(iasset
Asset
p1896
(dp1897
g3
I18
sg4
(dp1898
g6
F1.83
sg7
F1.33
sg8
F2.16
ssg9
VIndustrial
p1899
sg11
g12
sg13
g27
sg15
VMaster Bedroom
p1900
sg17
g29
sg19
VAbbott 2 Drawer Nightstand
p1901
sg21
VCasaone
p1902
sbsI261
(iasset
Asset
p1903
(dp1904
g3
F0.25
sg4
(dp1905
g6
F0.5
sg7
F0.5
sg8
F0.5
ssg9
VECCENTRIC / ECLECTIC
p1906
sg11
g191
sg13
Vpots & planters
p1907
sg15
VGuest Room
p1908
sg17
Vplanters
p1909
sg19
VCement Flower Planter Green And Yellow
p1910
sg21
VCasaone
p1911
sbsI262
(iasset
Asset
p1912
(dp1913
g3
F3.25
sg4
(dp1914
g6
F1.47
sg7
F0.1
sg8
F1.47
ssg9
VMid Century
p1915
sg11
g211
sg13
g212
sg15
VLiving Room
p1916
sg17
g455
sg19
VMetallic Pillow Black & Copper
p1917
sg21
VCasaone
p1918
sbsI263
(iasset
Asset
p1919
(dp1920
g3
I11
sg4
(dp1921
g6
F0.72
sg7
F0.72
sg8
F2.13
ssg9
VCONTEMPORARY
p1922
sg11
g52
sg13
g77
sg15
VLiving Room
p1923
sg17
g133
sg19
VBelair Table Lamp
p1924
sg21
VCasaone
p1925
sbsI264
(iasset
Asset
p1926
(dp1927
g3
I11
sg4
(dp1928
g6
F1.475
sg7
F0.1
sg8
F1.475
ssg9
VCOASTAL CASUAL
p1929
sg11
g211
sg13
g212
sg15
VLiving Room
p1930
sg17
g455
sg19
VTurquoise Pillow
p1931
sg21
VCasaone
p1932
sbsI265
(iasset
Asset
p1933
(dp1934
g3
I17
sg4
(dp1935
g6
F0.98
sg7
F0.98
sg8
F5.01
ssg9
VCONTEMPORARY
p1936
sg11
g52
sg13
g77
sg15
VLiving Room
p1937
sg17
g79
sg19
VBelair Floor Lamp
p1938
sg21
VCasaone
p1939
sbsI266
(iasset
Asset
p1940
(dp1941
g3
I12
sg4
(dp1942
g6
F1.475
sg7
F0.2
sg8
F1.475
ssg9
VCOASTAL CASUAL
p1943
sg11
g211
sg13
g212
sg15
VLiving Room
p1944
sg17
g455
sg19
VBlue Reef Pillow Blue & White
p1945
sg21
VCasaone
p1946
sbsI267
(iasset
Asset
p1947
(dp1948
g3
I10
sg4
(dp1949
g6
F0.6
sg7
F0.6
sg8
F1.93
ssg9
VModern
p1950
sg11
g191
sg13
VVases
p1951
sg15
VLiving Room
p1952
sg17
VVases
p1953
sg19
VCobalt Lg Vase Blue
p1954
sg21
VCasaone
p1955
sbsI268
(iasset
Asset
p1956
(dp1957
g3
I64
sg4
(dp1958
g6
F5.8
sg7
F2.72
sg8
F2.69
ssg9
VModern
p1959
sg11
g12
sg13
g289
sg15
VLiving Room
p1960
sg17
g660
sg19
VPuget Sofa
p1961
sg21
VCasaone
p1962
sbsI269
(iasset
Asset
p1963
(dp1964
g3
I26
sg4
(dp1965
g6
F6.7
sg7
F9.1
sg8
F0.1
ssg9
VCOASTAL CASUAL
p1966
sg11
g211
sg13
g365
sg15
VLiving Room
p1967
sg17
g593
sg19
VLessing Rug Natural
p1968
sg21
VCasaone
p1969
sbsI270
(iasset
Asset
p1970
(dp1971
g3
I35
sg4
(dp1972
g6
F6.7
sg7
F9.1
sg8
F0.1
ssg9
VCONTEMPORARY
p1973
sg11
g211
sg13
g365
sg15
VLiving Room
p1974
sg17
g593
sg19
VVladimir Rug White
p1975
sg21
VCasaone
p1976
sbsI271
(iasset
Asset
p1977
(dp1978
g3
I22
sg4
(dp1979
g6
F2.58
sg7
F0.1
sg8
F3.9
ssg9
VHollywood Regency
p1980
sg11
g191
sg13
g192
sg15
VLiving Room
p1981
sg17
g194
sg19
VMini Squares Mirror Antique
p1982
sg21
VCasaone
p1983
sbsI272
(iasset
Asset
p1984
(dp1985
g3
F8.5
sg4
(dp1986
g6
F1.3
sg7
F0.1
sg8
F1.97
ssg9
VRUSTIC
p1987
sg11
g201
sg13
Vwall accents
p1988
sg15
VLiving Room
p1989
sg17
Vmetal wall art
p1990
sg19
VBlanca Wall Decor Antique-1
p1991
sg21
VCasaone
p1992
sbsI273
(iasset
Asset
p1993
(dp1994
g3
F15.05
sg4
(dp1995
g6
F2.625
sg7
F0.1
sg8
F2.625
ssg9
VMid Century
p1996
sg11
g201
sg13
g1988
sg15
VLiving Room
p1997
sg17
g1990
sg19
VSpring Wall Decor Antique
p1998
sg21
VCasaone
p1999
sbsI274
(iasset
Asset
p2000
(dp2001
g3
I35
sg4
(dp2002
g6
I4
sg7
F1.25
sg8
F2.49
ssg9
VCONTEMPORARY
p2003
sg11
g12
sg13
g27
sg15
VLiving Room
p2004
sg17
g94
sg19
VKure Console Table
p2005
sg21
VCasaone
p2006
sbsI275
(iasset
Asset
p2007
(dp2008
g3
I12
sg4
(dp2009
g6
F1.7
sg7
I2
sg8
F3.33
ssg9
VIndustrial
p2010
sg11
g12
sg13
g273
sg15
VDining Room
p2011
sg17
g299
sg19
VSkyline Dining Chair
p2012
sg21
VCasaone
p2013
sbsI276
(iasset
Asset
p2014
(dp2015
g3
I59
sg4
(dp2016
g6
F4.52
sg7
F4.52
sg8
F2.55
ssg9
VCONTEMPORARY
p2017
sg11
g12
sg13
g273
sg15
VDining Room
p2018
sg17
g337
sg19
VBeaumont Dining Table
p2019
sg21
VCasaone
p2020
sbsI277
(iasset
Asset
p2021
(dp2022
g3
I32
sg4
(dp2023
g6
F5.31
sg7
F7.16
sg8
F3.93
ssg9
VCONTEMPORARY
p2024
sg11
g12
sg13
g14
sg15
VGuest Room
p2025
sg17
g18
sg19
VTaylor Platform Bed
p2026
sg21
VCasaone
p2027
sbsI278
(iasset
Asset
p2028
(dp2029
g3
I28
sg4
(dp2030
g6
I7
sg7
F9.1
sg8
F0.03
ssg9
VModern
p2031
sg11
g211
sg13
g365
sg15
VLiving Room
p2032
sg17
g593
sg19
VAnson Rug
p2033
sg21
VCasaone
p2034
sbsI279
(iasset
Asset
p2035
(dp2036
g3
I46
sg4
(dp2037
g6
F3.91
sg7
F2.15
sg8
F1.25
ssg9
VCONTEMPORARY
p2038
sg11
g12
sg13
g27
sg15
VLiving Room
p2039
sg17
g125
sg19
VShaman Coffee Table
p2040
sg21
VCasaone
p2041
sbsI280
(iasset
Asset
p2042
(dp2043
g3
I26
sg4
(dp2044
g6
F1.64
sg7
F1.64
sg8
F1.49
ssg9
VModern
p2045
sg11
g12
sg13
g27
sg15
VLiving Room
p2046
sg17
VNested Tables
p2047
sg19
VShaman Side Table
p2048
sg21
VCasaone
p2049
sbsI281
(iasset
Asset
p2050
(dp2051
g3
I850
sg4
(dp2052
g6
F4.58
sg7
F1.91
sg8
F2.5
ssg9
VRUSTIC
p2053
sg11
g12
sg13
g27
sg15
VStudio
p2054
sg17
VStudy Tables
p2055
sg19
VFULTON DESK
p2056
sg21
VRestoration Hardware
p2057
sbsI282
(iasset
Asset
p2058
(dp2059
g3
I1195
sg4
(dp2060
g6
F2.25
sg7
F2.08
sg8
F2.75
ssg9
VHollywood Regency
p2061
sg11
g12
sg13
g108
sg15
VMaster Bedroom
p2062
sg17
VOffice Chairs
p2063
sg19
VTREVISO TUFTED DESK CHAIR
p2064
sg21
VRestoration Hardware
p2065
sbsI283
(iasset
Asset
p2066
(dp2067
g3
I495
sg4
(dp2068
g6
F1.83
sg7
F0.03
sg8
F1.83
ssg9
VModern
p2069
sg11
g201
sg13
g445
sg15
VLiving Room
p2070
sg17
g816
sg19
VPRESERVED SEA FAN
p2071
sg21
VRestoration Hardware
p2072
sbsI284
(iasset
Asset
p2073
(dp2074
g3
I695
sg4
(dp2075
g6
F1.667
sg7
F2.08
sg8
F3.41
ssg9
VIndustrial
p2076
sg11
g12
sg13
g108
sg15
VMaster Bedroom
p2077
sg17
g2063
sg19
VHUDSON PARSONS LEATHER SIDE CHAIR
p2078
sg21
VRestoration Hardware
p2079
sbsI285
(iasset
Asset
p2080
(dp2081
g3
I0
sg4
(dp2082
g6
I4
sg7
F2.29
sg8
F13.34
ssg9
VRUSTIC
p2083
sg11
g191
sg13
g629
sg15
VLiving Room
p2084
sg17
VCurios
p2085
sg19
VFireplace
p2086
sg21
VHomefuly
p2087
sbsI286
(iasset
Asset
p2088
(dp2089
g3
I279
sg4
(dp2090
g6
F4.58
sg7
F4.58
sg8
I2
ssg9
VIndustrial
p2091
sg11
g12
sg13
g108
sg15
VMaster Bedroom
p2092
sg17
VBean Bags
p2093
sg19
VLUXE FAUX FUR BEAN BAG-ARCTIC FOX
p2094
sg21
VRestoration Hardware
p2095
sbsI287
(iasset
Asset
p2096
(dp2097
g3
I279
sg4
(dp2098
g6
F4.58
sg7
F4.58
sg8
I2
ssg9
VIndustrial
p2099
sg11
g12
sg13
g108
sg15
VGuest Room
p2100
sg17
g2093
sg19
VLUXE FAUX FUR BEAN BAG-LYNX
p2101
sg21
VRestoration Hardware
p2102
sbsI288
(iasset
Asset
p2103
(dp2104
g3
I279
sg4
(dp2105
g6
F4.58
sg7
F4.58
sg8
I2
ssg9
VIndustrial
p2106
sg11
g12
sg13
g108
sg15
VLiving Room
p2107
sg17
g2093
sg19
VLUXE FAUX FUR BEAN BAG-MINK
p2108
sg21
VRestoration Hardware
p2109
sbsI289
(iasset
Asset
p2110
(dp2111
g3
I169
sg4
(dp2112
g6
F0.667
sg7
F0.667
sg8
F0.83
ssg9
VIndustrial
p2113
sg11
g52
sg13
g53
sg15
VStudio
p2114
sg17
VWall Lights
p2115
sg19
VCLEAR GLASS FUNNEL SCONCE
p2116
sg21
VRestoration Hardware
p2117
sbsI290
(iasset
Asset
p2118
(dp2119
g3
I1895
sg4
(dp2120
g6
F4.5
sg7
F4.5
sg8
F1.33
ssg9
VIndustrial
p2121
sg11
g12
sg13
g27
sg15
VStudio
p2122
sg17
g125
sg19
VAGED ELM-MARTENS ROUND COFFEE TABLE
p2123
sg21
VRestoration Hardware
p2124
sbsI291
(iasset
Asset
p2125
(dp2126
g3
I1895
sg4
(dp2127
g6
F4.5
sg7
F4.5
sg8
F1.33
ssg9
VIndustrial
p2128
sg11
g12
sg13
g27
sg15
VLiving Room
p2129
sg17
g125
sg19
VAGED BROWN OAK-MARTENS ROUND COFFEE TABLE
p2130
sg21
VRestoration Hardware
p2131
sbsI292
(iasset
Asset
p2132
(dp2133
g3
I450
sg4
(dp2134
g6
I1
sg7
I1
sg8
F2.5
ssg9
VIndustrial
p2135
sg11
g52
sg13
g53
sg15
VStudio
p2136
sg17
g2115
sg19
V1940S ARCHITECT'S BOOM SCONCE
p2137
sg21
VRestoration Hardware
p2138
sbsI293
(iasset
Asset
p2139
(dp2140
g3
I4695
sg4
(dp2141
g6
F6.5
sg7
F7.5
sg8
F3.167
ssg9
VIndustrial
p2142
sg11
g12
sg13
g14
sg15
VStudio
p2143
sg17
g18
sg19
VRECLAIMED RUSSIAN OAK PLATFORM BED
p2144
sg21
VRestoration Hardware
p2145
sbsI294
(iasset
Asset
p2146
(dp2147
g3
I2350
sg4
(dp2148
g6
F4.58
sg7
F2.66
sg8
F1.25
ssg9
VCONTEMPORARY
p2149
sg11
g12
sg13
g27
sg15
VLiving Room
p2150
sg17
g125
sg19
VCOFFEE TABLE OTTOMAN
p2151
sg21
VRestoration Hardware
p2152
sbsI295
(iasset
Asset
p2153
(dp2154
g3
I5195
sg4
(dp2155
g6
F7.33
sg7
F8.08
sg8
F3.58
ssg9
VIndustrial
p2156
sg11
g12
sg13
g14
sg15
VStudio
p2157
sg17
g18
sg19
VASPEN FRENCH OAK PLATFORM BED
p2158
sg21
VRestoration Hardware
p2159
sbsI296
(iasset
Asset
p2160
(dp2161
g3
I7895
sg4
(dp2162
g6
I6
sg7
F3.16
sg8
F2.66
ssg9
VCONTEMPORARY
p2163
sg11
g12
sg13
g289
sg15
VLiving Room
p2164
sg17
g660
sg19
VCLASSIC SLOPE ARM SOFA
p2165
sg21
VRestoration Hardware
p2166
sbsI297
(iasset
Asset
p2167
(dp2168
g3
I395
sg4
(dp2169
g6
F2.08
sg7
F2.41
sg8
F2.5
ssg9
VIndustrial
p2170
sg11
g12
sg13
g108
sg15
VLiving Room
p2171
sg17
g110
sg19
VCOUTURIER'S CHAIR
p2172
sg21
VRestoration Hardware
p2173
sbsI298
(iasset
Asset
p2174
(dp2175
g3
I2295
sg4
(dp2176
g6
I5
sg7
I7
sg8
F0.1
ssg9
VScandinavian
p2177
sg11
g211
sg13
g365
sg15
VLiving Room
p2178
sg17
g593
sg19
VQUADRO RUG - MARINE
p2179
sg21
VRestoration Hardware
p2180
sbsI299
(iasset
Asset
p2181
(dp2182
g3
I299
sg4
(dp2183
g6
F1.83
sg7
F0.4
sg8
F1.83
ssg9
VScandinavian
p2184
sg11
g211
sg13
g212
sg15
VMaster Bedroom
p2185
sg17
g608
sg19
VSTOWE BRUSHED ALPACA MULTISTRIPE PILLOW COVER
p2186
sg21
VRestoration Hardware
p2187
sbsI300
(iasset
Asset
p2188
(dp2189
g3
I299
sg4
(dp2190
g6
F1.83
sg7
F0.4
sg8
F1.83
ssg9
VECCENTRIC / ECLECTIC
p2191
sg11
g211
sg13
g212
sg15
VMaster Bedroom
p2192
sg17
g608
sg19
VMOROCCAN CACTUS SILK PILLOW COVER - SQUARE
p2193
sg21
VRestoration Hardware
p2194
sbsI301
(iasset
Asset
p2195
(dp2196
g3
I219
sg4
(dp2197
g6
F1.75
sg7
F0.8
sg8
F1.08
ssg9
VBohemian
p2198
sg11
g211
sg13
g212
sg15
VMaster Bedroom
p2199
sg17
g608
sg19
VMOROCCAN CACTUS SILK PILLOW COVER
p2200
sg21
VRestoration Hardware
p2201
sbsI302
(iasset
Asset
p2202
(dp2203
g3
I0
sg4
(dp2204
g6
I6
sg7
F0.5
sg8
I7
ssg9
VIndustrial
p2205
sg11
g12
sg13
VPartitions
p2206
sg15
VLiving Room
p2207
sg17
VPartitions
p2208
sg19
VPartition_Solid
p2209
sg21
VHomefuly
p2210
sbsI303
(iasset
Asset
p2211
(dp2212
g3
I4095
sg4
(dp2213
g6
I7
sg7
F3.33
sg8
F2.5
ssg9
VMid Century
p2214
sg11
g12
sg13
g273
sg15
VDining Room
p2215
sg17
g337
sg19
VX-BASE RECTANGULAR DINING TABLE
p2216
sg21
VRestoration Hardware
p2217
sbsI304
(iasset
Asset
p2218
(dp2219
g3
I3495
sg4
(dp2220
g6
I7
sg7
F2.5
sg8
I3
ssg9
VIndustrial
p2221
sg11
g12
sg13
g273
sg15
VDining Room
p2222
sg17
g337
sg19
VTRESTLE RECTANGULAR EXTENSION DINING TABLE
p2223
sg21
VRestoration Hardware
p2224
sbsI305
(iasset
Asset
p2225
(dp2226
g3
I3095
sg4
(dp2227
g6
F3.667
sg7
I2
sg8
F6.41
ssg9
VMid Century
p2228
sg11
g12
sg13
g147
sg15
VLiving and Dining Room
p2229
sg17
VCrockery Units
p2230
sg19
VENGLISH BRASS BAR PULL GLASS DOUBLE-DOOR CABINET
p2231
sg21
VRestoration Hardware
p2232
sbsI306
(iasset
Asset
p2233
(dp2234
g3
I2195
sg4
(dp2235
g6
F3.167
sg7
F1.5
sg8
F6.4
ssg9
VIndustrial
p2236
sg11
g12
sg13
g147
sg15
VDining Room
p2237
sg17
g2230
sg19
VAGED OAK FRENCH CASEMENT DOUBLE-DOOR CABINET
p2238
sg21
VRestoration Hardware
p2239
sbsI307
(iasset
Asset
p2240
(dp2241
g3
I1695
sg4
(dp2242
g6
F2.9
sg7
F2.9
sg8
F2.5
ssg9
VMINIMALIST
p2243
sg11
g12
sg13
g108
sg15
VLiving and Dining Room
p2244
sg17
g110
sg19
VSAND 1930S ENGLISH TUFTED TUB CHAIR
p2245
sg21
VRestoration Hardware
p2246
sbsI308
(iasset
Asset
p2247
(dp2248
g3
I297
sg4
(dp2249
g6
F1.25
sg7
F1.25
sg8
F2.41
ssg9
VIndustrial
p2250
sg11
g12
sg13
g108
sg15
VDining Room
p2251
sg17
g1610
sg19
V1940S VINTAGE TOLEDO BARSTOOL
p2252
sg21
VRestoration Hardware
p2253
sbsI309
(iasset
Asset
p2254
(dp2255
g3
I595
sg4
(dp2256
g6
F0.9
sg7
F0.9
sg8
I2
ssg9
VIndustrial
p2257
sg11
g52
sg13
g53
sg15
VDining Room
p2258
sg17
g696
sg19
VLANGUEDOC PENDANT
p2259
sg21
VRestoration Hardware
p2260
sbsI310
(iasset
Asset
p2261
(dp2262
g3
I995
sg4
(dp2263
g6
F5.33
sg7
I2
sg8
I3
ssg9
VIndustrial
p2264
sg11
g12
sg13
g27
sg15
VDining Room
p2265
sg17
VBar tables
p2266
sg19
VFLATIRON BAR
p2267
sg21
VRestoration Hardware
p2268
sbsI311
(iasset
Asset
p2269
(dp2270
g3
I1145
sg4
(dp2271
g6
F2.25
sg7
F0.03
sg8
F3.16
ssg9
VModern
p2272
sg11
g201
sg13
g445
sg15
VLiving and Dining Room
p2273
sg17
g816
sg19
VCALIFORNIA SUNSET 4
p2274
sg21
VRestoration Hardware
p2275
sbsI312
(iasset
Asset
p2276
(dp2277
g3
I1745
sg4
(dp2278
g6
F3.16
sg7
F0.03
sg8
F3.16
ssg9
VModern
p2279
sg11
g201
sg13
g445
sg15
VLiving Room
p2280
sg17
g816
sg19
VKATE SCHERMERHORN
p2281
sg21
VRestoration Hardware
p2282
sbsI313
(iasset
Asset
p2283
(dp2284
g3
I1495
sg4
(dp2285
g6
F3.33
sg7
F3.33
sg8
F3.5
ssg9
VIndustrial
p2286
sg11
g52
sg13
g53
sg15
VLiving and Dining Room
p2287
sg17
g55
sg19
VORB CHANDELIER 
p2288
sg21
VRestoration Hardware
p2289
sbsI314
(iasset
Asset
p2290
(dp2291
g3
I1865
sg4
(dp2292
g6
F3.31
sg7
F3.31
sg8
F3.33
ssg9
VIndustrial
p2293
sg11
g52
sg13
g53
sg15
VLiving Room
p2294
sg17
g55
sg19
VVINTAGE ROUND CHANDELIER
p2295
sg21
VRestoration Hardware
p2296
sbsI315
(iasset
Asset
p2297
(dp2298
g3
I2495
sg4
(dp2299
g6
F2.5
sg7
F0.25
sg8
F3.33
ssg9
VModern
p2300
sg11
g191
sg13
g192
sg15
VLiving Room
p2301
sg17
g194
sg19
VRIBBED METAL MIRROR
p2302
sg21
VRestoration Hardware
p2303
sbsI316
(iasset
Asset
p2304
(dp2305
g3
I2395
sg4
(dp2306
g6
F2.5
sg7
F0.25
sg8
F3.33
ssg9
VModern
p2307
sg11
g191
sg13
g192
sg15
VLiving Room
p2308
sg17
g194
sg19
VMETAL FRAMED MIRROR
p2309
sg21
VRestoration Hardware
p2310
sbsI317
(iasset
Asset
p2311
(dp2312
g3
I255
sg4
(dp2313
g6
F2.25
sg7
F0.1667
sg8
F1.25
ssg9
VRUSTIC
p2314
sg11
g191
sg13
g1907
sg15
VGuest Room
p2315
sg17
Vpots
p2316
sg19
VCARVED SLATE RECTANGULAR VASE
p2317
sg21
VRestoration Hardware
p2318
sbsI318
(iasset
Asset
p2319
(dp2320
g3
I115
sg4
(dp2321
g6
F2.27
sg7
I1
sg8
F0.667
ssg9
VRUSTIC
p2322
sg11
g191
sg13
g1907
sg15
VLiving Room
p2323
sg17
g2316
sg19
VWEATHERED STONE VESSEL
p2324
sg21
VRestoration Hardware
p2325
sbsI319
(iasset
Asset
p2326
(dp2327
g3
I85
sg4
(dp2328
g6
F0.67
sg7
F0.67
sg8
F0.83
ssg9
VRUSTIC
p2329
sg11
g191
sg13
g1907
sg15
VLiving Room
p2330
sg17
g2316
sg19
VORGANIC CONCRETE VESSEL SMALL
p2331
sg21
VRestoration Hardware
p2332
sbsI320
(iasset
Asset
p2333
(dp2334
g3
I1795
sg4
(dp2335
g6
F7.91
sg7
F1.25
sg8
F1.5
ssg9
VIndustrial
p2336
sg11
g12
sg13
g108
sg15
VDining Room
p2337
sg17
g329
sg19
VPARSONS BENCH
p2338
sg21
VRestoration Hardware
p2339
sbsI321
(iasset
Asset
p2340
(dp2341
g3
I795
sg4
(dp2342
g6
F2.66
sg7
F1.91
sg8
F6.91
ssg9
VIndustrial
p2343
sg11
g12
sg13
g147
sg15
VLiving and Dining Room
p2344
sg17
g238
sg19
VRECLAIMED SHELVING
p2345
sg21
VRestoration Hardware
p2346
sbsI322
(iasset
Asset
p2347
(dp2348
g3
I109
sg4
(dp2349
g6
F0.667
sg7
F0.1
sg8
F0.833
ssg9
VHollywood Regency
p2350
sg11
g201
sg13
VPicture Frames
p2351
sg15
VGuest Room
p2352
sg17
Vsingle photo frames
p2353
sg19
V8X10 CAST RIBBED METAL FRAME
p2354
sg21
VRestoration Hardware
p2355
sbsI323
(iasset
Asset
p2356
(dp2357
g3
I89
sg4
(dp2358
g6
F0.417
sg7
F0.1
sg8
F0.58
ssg9
VRUSTIC
p2359
sg11
g201
sg13
g2351
sg15
VGuest Room
p2360
sg17
g2353
sg19
V5X7 CAST RIBBED METAL FRAME
p2361
sg21
VRestoration Hardware
p2362
sbsI324
(iasset
Asset
p2363
(dp2364
g3
I79
sg4
(dp2365
g6
F0.33
sg7
F0.1
sg8
F0.5
ssg9
VRUSTIC
p2366
sg11
g201
sg13
g2351
sg15
VGuest Room
p2367
sg17
g2353
sg19
V4X6 CAST RIBBED METAL FRAME
p2368
sg21
VRestoration Hardware
p2369
sbsI325
(iasset
Asset
p2370
(dp2371
g3
I995
sg4
(dp2372
g6
F2.29
sg7
F1.58
sg8
F6.45
ssg9
VIndustrial
p2373
sg11
g12
sg13
g147
sg15
VLiving and Dining Room
p2374
sg17
g238
sg19
VNARROW SINGLE SHELVING
p2375
sg21
VRestoration Hardware
p2376
sbsI326
(iasset
Asset
p2377
(dp2378
g3
I3195
sg4
(dp2379
g6
F2.75
sg7
F2.66
sg8
F5.08
ssg9
VMid Century
p2380
sg11
g12
sg13
g108
sg15
VLiving Room
p2381
sg17
g110
sg19
VVERSAILLES CHAIR
p2382
sg21
VRestoration Hardware
p2383
sbsI327
(iasset
Asset
p2384
(dp2385
g3
I850
sg4
(dp2386
g6
F2.16
sg7
F2.25
sg8
F2.33
ssg9
VMid Century
p2387
sg11
g12
sg13
g108
sg15
VLiving Room
p2388
sg17
g110
sg19
VSOPHIE TUFTED CHAIR
p2389
sg21
VRestoration Hardware
p2390
sbsI328
(iasset
Asset
p2391
(dp2392
g3
F112.99
sg4
(dp2393
g6
F0.5
sg7
F0.5
sg8
F1.33
ssg9
VScandinavian
p2394
sg11
g52
sg13
g53
sg15
VGuest Room
p2395
sg17
g2115
sg19
VSwing Arm Lamp
p2396
sg21
VWayfair
p2397
sbsI329
(iasset
Asset
p2398
(dp2399
g3
I129
sg4
(dp2400
g6
F1.67
sg7
I2
sg8
F2.08
ssg9
VScandinavian
p2401
sg11
g191
sg13
VBaskets
p2402
sg15
VKids Room
p2403
sg17
VWoven Baskets
p2404
sg19
VOversized Seagrass Basket
p2405
sg21
VWest Elm
p2406
sbsI330
(iasset
Asset
p2407
(dp2408
g3
I3515
sg4
(dp2409
g6
I10
sg7
F3.33
sg8
F2.5
ssg9
VIndian Contemporary
p2410
sg11
g12
sg13
g273
sg15
VDining Room
p2411
sg17
g337
sg19
VSALVAGED WOOD X-BASE  TABLE
p2412
sg21
VRestoration Hardware
p2413
sbsI331
(iasset
Asset
p2414
(dp2415
g3
I4095
sg4
(dp2416
g6
I10
sg7
F3.33
sg8
F2.5
ssg9
VRUSTIC
p2417
sg11
g12
sg13
g273
sg15
VDining Room
p2418
sg17
g337
sg19
VSALVAGED WOOD DINING TABLE
p2419
sg21
VRestoration Hardware
p2420
sbsI332
(iasset
Asset
p2421
(dp2422
g3
I1040
sg4
(dp2423
g6
F4.5
sg7
F1.5
sg8
F2.67
ssg9
VScandinavian
p2424
sg11
g12
sg13
g43
sg15
VKids Room
p2425
sg17
g45
sg19
VJeweled 6 Drawer Dresser
p2426
sg21
VWest Elm
p2427
sbsI333
(iasset
Asset
p2428
(dp2429
g3
I2610
sg4
(dp2430
g6
F3.33
sg7
F3.33
sg8
I2
ssg9
VRUSTIC
p2431
sg11
g52
sg13
g53
sg15
VLiving Room
p2432
sg17
g55
sg19
VANTLER CHANDELIER
p2433
sg21
VRestoration Hardware
p2434
sbsI334
(iasset
Asset
p2435
(dp2436
g3
I247
sg4
(dp2437
g6
F1.66
sg7
I2
sg8
F3.16
ssg9
VRUSTIC
p2438
sg11
g12
sg13
g273
sg15
VDining Room
p2439
sg17
g299
sg19
VCANE BACK CHAIR
p2440
sg21
VRestoration Hardware
p2441
sbsI335
(iasset
Asset
p2442
(dp2443
g3
I595
sg4
(dp2444
g6
F1.75
sg7
F1.78
sg8
F2.75
ssg9
VScandinavian
p2445
sg11
g12
sg13
g273
sg15
VDining Room
p2446
sg17
g299
sg19
VKLISMOS FABRIC SIDE CHAIR
p2447
sg21
VRestoration Hardware
p2448
sbsI336
(iasset
Asset
p2449
(dp2450
g3
I0
sg4
(dp2451
g6
F2.5
sg7
F0.1
sg8
I5
ssg9
VScandinavian
p2452
sg11
g191
sg13
g629
sg15
VMaster Bedroom
p2453
sg17
VNAUTICAL DECOR
p2454
sg19
VLadder Deco
p2455
sg21
VHomefuly
p2456
sbsI337
(iasset
Asset
p2457
(dp2458
g3
F115.99
sg4
(dp2459
g6
I2
sg7
F0.01
sg8
I3
ssg9
VScandinavian
p2460
sg11
g191
sg13
g192
sg15
VMaster Bedroom
p2461
sg17
g194
sg19
VLongwood Wall Mirror
p2462
sg21
VJoss And Main
p2463
sbsI338
(iasset
Asset
p2464
(dp2465
g3
I10295
sg4
(dp2466
g6
I6
sg7
F2.83
sg8
F2.58
ssg9
VCONTEMPORARY
p2467
sg11
g12
sg13
g289
sg15
VLiving Room
p2468
sg17
g660
sg19
VPAXTON SOFA
p2469
sg21
VRestoration Hardware
p2470
sbsI339
(iasset
Asset
p2471
(dp2472
g3
I0
sg4
(dp2473
g6
I4
sg7
F0.1
sg8
I5
ssg9
VScandinavian
p2474
sg11
g191
sg13
g629
sg15
VGuest Room
p2475
sg17
g631
sg19
VPinboard Deco
p2476
sg21
VHomefuly
p2477
sbsI340
(iasset
Asset
p2478
(dp2479
g3
F10.99
sg4
(dp2480
g6
F1.5
sg7
F0.1
sg8
F1.5
ssg9
VIndustrial
p2481
sg11
g211
sg13
g212
sg15
VMaster Bedroom
p2482
sg17
g608
sg19
VCotton Pillow Cover
p2483
sg21
VJoss And Main
p2484
sbsI341
(iasset
Asset
p2485
(dp2486
g3
F76.99
sg4
(dp2487
g6
F4.33
sg7
F0.3
sg8
I7
ssg9
VScandinavian
p2488
sg11
g211
sg13
VCurtains
p2489
sg15
VGuest Room
p2490
sg17
VDoor Curtains
p2491
sg19
VThermal Grommet Curtain Panels
p2492
sg21
VJoss And Main
p2493
sbsI342
(iasset
Asset
p2494
(dp2495
g3
I320
sg4
(dp2496
g6
F1.5
sg7
F1.5
sg8
I2
ssg9
VScandinavian
p2497
sg11
g12
sg13
g27
sg15
VMaster Bedroom
p2498
sg17
g29
sg19
VJeweled Nightstand
p2499
sg21
VWest Elm
p2500
sbsI343
(iasset
Asset
p2501
(dp2502
g3
F118.32
sg4
(dp2503
g6
F4.58
sg7
F6.48
sg8
F4.04
ssg9
VSHABBY-CHIC
p2504
sg11
g12
sg13
g14
sg15
VKids Room
p2505
sg17
g18
sg19
VRhys Platform Bed
p2506
sg21
VWayfair
p2507
sbsI344
(iasset
Asset
p2508
(dp2509
g3
F79.99
sg4
(dp2510
g6
F1.65
sg7
F1.32
sg8
F2.25
ssg9
VScandinavian
p2511
sg11
g12
sg13
g27
sg15
VMaster Bedroom
p2512
sg17
g70
sg19
VAdeline End Table
p2513
sg21
VWayfair
p2514
sbsI345
(iasset
Asset
p2515
(dp2516
g3
F31.99
sg4
(dp2517
g6
F2.95
sg7
F0.375
sg8
F0.29
ssg9
VScandinavian
p2518
sg11
g12
sg13
g147
sg15
VLiving Room
p2519
sg17
g499
sg19
VPicture Ledge Wall Shelf
p2520
sg21
VWayfair
p2521
sbsI346
(iasset
Asset
p2522
(dp2523
g3
F108.99
sg4
(dp2524
g6
F3.375
sg7
F0.01
sg8
F2.125
ssg9
VScandinavian
p2525
sg11
g201
sg13
g445
sg15
VMaster Bedroom
p2526
sg17
Vstill life art panels
p2527
sg19
VAcrylic Painting Print
p2528
sg21
VJoss And Main
p2529
sbsI347
(iasset
Asset
p2530
(dp2531
g3
F126.99
sg4
(dp2532
g6
I5
sg7
F7.5
sg8
F0.01
ssg9
VScandinavian
p2533
sg11
g211
sg13
g365
sg15
VMaster Bedroom
p2534
sg17
g593
sg19
VDuhon Ivory
p2535
sg21
VJoss And Main
p2536
sbsI348
(iasset
Asset
p2537
(dp2538
g3
F175.99
sg4
(dp2539
g6
I8
sg7
I10
sg8
F0.1
ssg9
VScandinavian
p2540
sg11
g211
sg13
g365
sg15
VLiving Room
p2541
sg17
g593
sg19
VWelford White Shag Area Rug
p2542
sg21
VWayfair
p2543
sbsI349
(iasset
Asset
p2544
(dp2545
g3
I78
sg4
(dp2546
g6
F1.5
sg7
F0.25
sg8
F1.5
ssg9
VIndustrial
p2547
sg11
g211
sg13
g212
sg15
VLiving Room
p2548
sg17
g455
sg19
VMarilyn House Pillow
p2549
sg21
VWayfair
p2550
sbsI350
(iasset
Asset
p2551
(dp2552
g3
I570
sg4
(dp2553
g6
F2.66
sg7
F2.66
sg8
F1.16
ssg9
VIndustrial
p2554
sg11
g12
sg13
g27
sg15
VLiving Room
p2555
sg17
g125
sg19
VSheree Concrete Table
p2556
sg21
VWayfair
p2557
sbsI351
(iasset
Asset
p2558
(dp2559
g3
I113
sg4
(dp2560
g6
F1.6
sg7
F1.64
sg8
F3.18
ssg9
VScandinavian
p2561
sg11
g12
sg13
g273
sg15
VDining Room
p2562
sg17
g299
sg19
VToby Dining Chair
p2563
sg21
VWayfair
p2564
sbsI352
(iasset
Asset
p2565
(dp2566
g3
I36
sg4
(dp2567
g6
I8
sg7
I10
sg8
F0.05
ssg9
VIndustrial
p2568
sg11
g211
sg13
g365
sg15
VLiving Room
p2569
sg17
g593
sg19
VBernd Area Rug
p2570
sg21
VWayfair
p2571
sbsI353
(iasset
Asset
p2572
(dp2573
g3
I122
sg4
(dp2574
g6
F3.83
sg7
I5
sg8
F0.05
ssg9
VIndustrial
p2575
sg11
g211
sg13
g365
sg15
VLiving Room
p2576
sg17
g367
sg19
VWynsum Area Rug
p2577
sg21
VWayfair
p2578
sbsI354
(iasset
Asset
p2579
(dp2580
g3
I0
sg4
(dp2581
g6
I3
sg7
F0.1
sg8
I2
ssg9
VCOASTAL CASUAL
p2582
sg11
g191
sg13
g629
sg15
VKids Room
p2583
sg17
g2454
sg19
VFence Decor
p2584
sg21
VHomefuly
p2585
sbsI355
(iasset
Asset
p2586
(dp2587
g3
F519.99
sg4
(dp2588
g6
F5.75
sg7
F7.4
sg8
I4
ssg9
VScandinavian
p2589
sg11
g12
sg13
g14
sg15
VKids Room
p2590
sg17
g18
sg19
VParocela Upholstered Platform Bed
p2591
sg21
VWayfair
p2592
sbsI356
(iasset
Asset
p2593
(dp2594
g3
I80
sg4
(dp2595
g6
F0.83
sg7
F0.87
sg8
F0.83
ssg9
VIndustrial
p2596
sg11
g52
sg13
g53
sg15
VKids Room
p2597
sg17
g2115
sg19
VGingrich Armed Scone
p2598
sg21
VWayfair
p2599
sbsI357
(iasset
Asset
p2600
(dp2601
g3
I1250
sg4
(dp2602
g6
F1.58
sg7
F1.58
sg8
F1.58
ssg9
VScandinavian
p2603
sg11
g12
sg13
g27
sg15
VMaster Bedroom
p2604
sg17
g29
sg19
VRECLAIMED RUSSIAN OAK PARSONS CUBE-BROWN
p2605
sg21
VRestoration Hardware
p2606
sbsI358
(iasset
Asset
p2607
(dp2608
g3
I1250
sg4
(dp2609
g6
F1.58
sg7
F1.58
sg8
F1.58
ssg9
VRUSTIC
p2610
sg11
g12
sg13
g27
sg15
VMaster Bedroom
p2611
sg17
g29
sg19
VRECLAIMED RUSSIAN OAK PARSONS CUBE-GREY
p2612
sg21
VRestoration Hardware
p2613
sbsI359
(iasset
Asset
p2614
(dp2615
g3
I1250
sg4
(dp2616
g6
F1.58
sg7
F1.58
sg8
F1.58
ssg9
VIndustrial
p2617
sg11
g12
sg13
g27
sg15
VMaster Bedroom
p2618
sg17
g29
sg19
VRECLAIMED RUSSIAN OAK PARSONS CUBE
p2619
sg21
VRestoration Hardware
p2620
sbsI360
(iasset
Asset
p2621
(dp2622
g3
I41
sg4
(dp2623
g6
F1.5
sg7
F0.06
sg8
F1.5
ssg9
VIndustrial
p2624
sg11
g201
sg13
g445
sg15
VKids Room
p2625
sg17
Vtransport art panels
p2626
sg19
VVintage Motorcycles Canvas
p2627
sg21
VWayfair
p2628
sbsI361
(iasset
Asset
p2629
(dp2630
g3
I680
sg4
(dp2631
g6
F5.52
sg7
F7.12
sg8
F4.41
ssg9
VIndustrial
p2632
sg11
g12
sg13
g14
sg15
VKids Room
p2633
sg17
g18
sg19
VMcville Panel Bed
p2634
sg21
VWayfair
p2635
sbsI362
(iasset
Asset
p2636
(dp2637
g3
F135.81
sg4
(dp2638
g6
F1.71
sg7
F1.71
sg8
F1.45
ssg9
VTRANSITIONAL
p2639
sg11
g52
sg13
g53
sg15
VLiving Room
p2640
sg17
g696
sg19
VTadwick 3-Light Pendant
p2641
sg21
VWayfair
p2642
sbsI363
(iasset
Asset
p2643
(dp2644
g3
I168
sg4
(dp2645
g6
F0.33
sg7
F0.33
sg8
F4.1875
ssg9
VModern
p2646
sg11
g52
sg13
g53
sg15
VLiving Room
p2647
sg17
g696
sg19
VImogen 1-Light Cylinder Pendant
p2648
sg21
VWayfair
p2649
sbsI364
(iasset
Asset
p2650
(dp2651
g3
F279.99
sg4
(dp2652
g6
F1.41
sg7
F1.41
sg8
I4
ssg9
VScandinavian
p2653
sg11
g52
sg13
g53
sg15
VLiving Room
p2654
sg17
g696
sg19
VChristena 3-Light Pendant
p2655
sg21
VWayfair
p2656
sbsI365
(iasset
Asset
p2657
(dp2658
g3
I124
sg4
(dp2659
g6
F1.5
sg7
F1.75
sg8
F2.83
ssg9
VIndustrial
p2660
sg11
g12
sg13
g108
sg15
VKids Room
p2661
sg17
VCafe Chairs
p2662
sg19
VIndustrial Side Chair
p2663
sg21
VWayfair
p2664
sbsI366
(iasset
Asset
p2665
(dp2666
g3
F61.99
sg4
(dp2667
g6
F0.9167
sg7
F0.9167
sg8
I2
ssg9
VModern
p2668
sg11
g52
sg13
g53
sg15
VLiving Room
p2669
sg17
g696
sg19
VAbaokoro 1-Light Dome Pendant
p2670
sg21
VWayfair
p2671
sbsI367
(iasset
Asset
p2672
(dp2673
g3
F45.99
sg4
(dp2674
g6
F0.67
sg7
F0.67
sg8
F1.29
ssg9
VScandinavian
p2675
sg11
g52
sg13
g53
sg15
VLiving Room
p2676
sg17
g696
sg19
VAbdallah 1-Light Geometric Pendant
p2677
sg21
VWayfair
p2678
sbsI368
(iasset
Asset
p2679
(dp2680
g3
F75.99
sg4
(dp2681
g6
F1.5
sg7
F1.5
sg8
F1.75
ssg9
VIndustrial
p2682
sg11
g52
sg13
g53
sg15
VLiving Room
p2683
sg17
g696
sg19
VIlgaz 1-Light Dome Pendant
p2684
sg21
VWayfair
p2685
sbsI369
(iasset
Asset
p2686
(dp2687
g3
I104
sg4
(dp2688
g6
I4
sg7
I4
sg8
F2.8
ssg9
VIndustrial
p2689
sg11
g12
sg13
g108
sg15
VKids Room
p2690
sg17
g2093
sg19
VFuf Bean Bag
p2691
sg21
VWayfair
p2692
sbsI370
(iasset
Asset
p2693
(dp2694
g3
I30
sg4
(dp2695
g6
F0.83
sg7
F0.83
sg8
F1.41
ssg9
VIndustrial
p2696
sg11
g191
sg13
g629
sg15
VLiving and Dining Room
p2697
sg17
g631
sg19
VMetal Amillary Sculpture
p2698
sg21
VWayfair
p2699
sbsI371
(iasset
Asset
p2700
(dp2701
g3
I40
sg4
(dp2702
g6
F1.5
sg7
F0.06
sg8
F2.16
ssg9
VIndustrial
p2703
sg11
g201
sg13
g445
sg15
VKids Room
p2704
sg17
g2626
sg19
VHarley Motorcycle Canvas
p2705
sg21
VWayfair
p2706
sbsI372
(iasset
Asset
p2707
(dp2708
g3
I108
sg4
(dp2709
g6
F1.33
sg7
F0.08
sg8
F1.66
ssg9
VIndustrial
p2710
sg11
g201
sg13
g445
sg15
VKids Room
p2711
sg17
g2626
sg19
VTin Gears Art
p2712
sg21
VWayfair
p2713
sbsI373
(iasset
Asset
p2714
(dp2715
g3
I790
sg4
(dp2716
g6
F5.91
sg7
F0.25
sg8
I2
ssg9
VIndustrial
p2717
sg11
g52
sg13
g53
sg15
VKids Room
p2718
sg17
g2115
sg19
VSteampunk Wall light
p2719
sg21
VWayfair
p2720
sbsI374
(iasset
Asset
p2721
(dp2722
g3
I440
sg4
(dp2723
g6
F3.33
sg7
F1.5
sg8
F5.25
ssg9
VIndustrial
p2724
sg11
g12
sg13
g147
sg15
VKids Room
p2725
sg17
g238
sg19
VEtagere Bookcase
p2726
sg21
VWayfair
p2727
sbsI375
(iasset
Asset
p2728
(dp2729
g3
I378
sg4
(dp2730
g6
I5
sg7
F2.33
sg8
F2.5
ssg9
VIndustrial
p2731
sg11
g12
sg13
g27
sg15
VKids Room
p2732
sg17
g2055
sg19
VRocklin Writing Desk
p2733
sg21
VWayfair
p2734
sbsI376
(iasset
Asset
p2735
(dp2736
g3
I45
sg4
(dp2737
g6
F1.16
sg7
F0.16
sg8
F1.58
ssg9
VIndustrial
p2738
sg11
g201
sg13
g445
sg15
VKids Room
p2739
sg17
g2626
sg19
VChevy Truck Canvas
p2740
sg21
VWayfair
p2741
sbsI377
(iasset
Asset
p2742
(dp2743
g3
F151.99
sg4
(dp2744
g6
F1.33
sg7
F1.33
sg8
F1.81
ssg9
VRUSTIC
p2745
sg11
g52
sg13
g53
sg15
VLiving Room
p2746
sg17
g696
sg19
VRussell Farm 3-Light Bowl Pendant
p2747
sg21
VWayfair
p2748
sbsI378
(iasset
Asset
p2749
(dp2750
g3
I323
sg4
(dp2751
g6
I6
sg7
I4
sg8
F0.1
ssg9
VModern
p2752
sg11
g211
sg13
g365
sg15
VLiving Room
p2753
sg17
g593
sg19
VSolid Wool And Viscose Blue
p2754
sg21
VPepperfry
p2755
sbsI379
(iasset
Asset
p2756
(dp2757
g3
I323
sg4
(dp2758
g6
I4
sg7
I6
sg8
F0.1
ssg9
VECCENTRIC / ECLECTIC
p2759
sg11
g211
sg13
g365
sg15
VLiving Room
p2760
sg17
g593
sg19
VSolid Wool And Viscose
p2761
sg21
VPepperfry
p2762
sbsI380
(iasset
Asset
p2763
(dp2764
g3
I0
sg4
(dp2765
g6
I6
sg7
F2.33
sg8
F3.5
ssg9
VIndustrial
p2766
sg11
g12
sg13
g147
sg15
VDining Room
p2767
sg17
g149
sg19
Vindustrial sink unit
p2768
sg21
VHomefuly
p2769
sbsI381
(iasset
Asset
p2770
(dp2771
g3
I31
sg4
(dp2772
g6
F3.75
sg7
F3.75
sg8
F4.9
ssg9
VIndustrial
p2773
sg11
g52
sg13
g53
sg15
VLiving Room
p2774
sg17
g696
sg19
VGrey Iron Filament Lamp by Tezerac
p2775
sg21
VPepperfry
p2776
sbsI382
(iasset
Asset
p2777
(dp2778
g3
I86
sg4
(dp2779
g6
I4
sg7
F0.1
sg8
I4
ssg9
VModern
p2780
sg11
g211
sg13
g2489
sg15
VKids Room
p2781
sg17
VBlinds & Shades
p2782
sg19
VPORTO DANUBE
p2783
sg21
VDDECOR
p2784
sbsI383
(iasset
Asset
p2785
(dp2786
g3
I206
sg4
(dp2787
g6
I5
sg7
I8
sg8
F0.01
ssg9
VModern
p2788
sg11
g211
sg13
g365
sg15
VLiving Room
p2789
sg17
g593
sg19
VAbstract Pattern Wool Blue
p2790
sg21
VPepperfry
p2791
sbsI384
(iasset
Asset
p2792
(dp2793
g3
I242
sg4
(dp2794
g6
I6
sg7
I9
sg8
F0.01
ssg9
VModern
p2795
sg11
g211
sg13
g365
sg15
VLiving Room
p2796
sg17
g593
sg19
VGeometric Pattern Polyester Grey
p2797
sg21
VPepperfry
p2798
sbsI385
(iasset
Asset
p2799
(dp2800
g3
I71
sg4
(dp2801
g6
I1
sg7
I1
sg8
I5
ssg9
VScandinavian
p2802
sg11
g52
sg13
g53
sg15
VMaster Bedroom
p2803
sg17
g696
sg19
VPendant Lamp in Black & Gold
p2804
sg21
VPepperfry
p2805
sbsI386
(iasset
Asset
p2806
(dp2807
g3
I192
sg4
(dp2808
g6
F6.08
sg7
F6.67
sg8
I3
ssg9
VIndian Contemporary
p2809
sg11
g12
sg13
g14
sg15
VMaster Bedroom
p2810
sg17
VKing Sized Beds
p2811
sg19
VKuruma King Size Storage Bed
p2812
sg21
VPepperfry
p2813
sbsI387
(iasset
Asset
p2814
(dp2815
g3
F82.99
sg4
(dp2816
g6
F0.42
sg7
F0.42
sg8
I5
ssg9
VModern
p2817
sg11
g52
sg13
g53
sg15
VLiving Room
p2818
sg17
g696
sg19
VRussell Farm 1-Light Cone Pendant
p2819
sg21
VWayfair
p2820
sbsI388
(iasset
Asset
p2821
(dp2822
g3
I93
sg4
(dp2823
g6
F0.58
sg7
F0.58
sg8
F1.27
ssg9
VModern
p2824
sg11
g52
sg13
g53
sg15
VLiving Room
p2825
sg17
g696
sg19
VHirst 1-Light Drum Pendant
p2826
sg21
VWayfair
p2827
sbsI389
(iasset
Asset
p2828
(dp2829
g3
F98.11
sg4
(dp2830
g6
F0.5
sg7
F0.5
sg8
I5
ssg9
VCOASTAL CASUAL
p2831
sg11
g52
sg13
g53
sg15
VLiving Room
p2832
sg17
g696
sg19
VLight Cone Pendant
p2833
sg21
VWayfair
p2834
sbsI390
(iasset
Asset
p2835
(dp2836
g3
F369.99
sg4
(dp2837
g6
F3.625
sg7
F0.167
sg8
I5
ssg9
VModern
p2838
sg11
g52
sg13
g53
sg15
VLiving Room
p2839
sg17
g696
sg19
VRectangle Pendant Black
p2840
sg21
VWayfair
p2841
sbsI391
(iasset
Asset
p2842
(dp2843
g3
F369.99
sg4
(dp2844
g6
F3.64
sg7
F0.167
sg8
I11
ssg9
VModern
p2845
sg11
g52
sg13
g53
sg15
VLiving Room
p2846
sg17
g696
sg19
VRectangle Pendant
p2847
sg21
VWayfair
p2848
sbsI392
(iasset
Asset
p2849
(dp2850
g3
F999.99
sg4
(dp2851
g6
F1.5
sg7
F1.5
sg8
F1.77
ssg9
VScandinavian
p2852
sg11
g52
sg13
g53
sg15
VLiving Room
p2853
sg17
g696
sg19
VNowayton LED Pendant
p2854
sg21
VWayfair
p2855
sbsI393
(iasset
Asset
p2856
(dp2857
g3
F309.99
sg4
(dp2858
g6
F1.96
sg7
F1.96
sg8
F1.96
ssg9
VModern
p2859
sg11
g52
sg13
g53
sg15
VLiving Room
p2860
sg17
g696
sg19
VKey West 1-Light LED Pendant
p2861
sg21
VWayfair
p2862
sbsI394
(iasset
Asset
p2863
(dp2864
g3
F266.99
sg4
(dp2865
g6
F2.08
sg7
F2.08
sg8
F2.08
ssg9
VIndustrial
p2866
sg11
g52
sg13
g53
sg15
VLiving Room
p2867
sg17
g696
sg19
VSteubenville Inverted Pendant
p2868
sg21
VWayfair
p2869
sbsI395
(iasset
Asset
p2870
(dp2871
g3
I1298
sg4
(dp2872
g6
F2.22
sg7
F2.22
sg8
F2.2
ssg9
VHollywood Regency
p2873
sg11
g12
sg13
g108
sg15
VLiving Room
p2874
sg17
g321
sg19
VTete-A-Tete Chair
p2875
sg21
VWest Elm
p2876
sbsI396
(iasset
Asset
p2877
(dp2878
g3
I129
sg4
(dp2879
g6
F0.75
sg7
F0.41
sg8
F1.5
ssg9
VHollywood Regency
p2880
sg11
g52
sg13
g53
sg15
VLiving Room
p2881
sg17
g2115
sg19
VPelle Sconce
p2882
sg21
VWest Elm
p2883
sbsI397
(iasset
Asset
p2884
(dp2885
g3
F829.99
sg4
(dp2886
g6
I5
sg7
F1.58
sg8
F3.17
ssg9
VHollywood Regency
p2887
sg11
g12
sg13
g147
sg15
VLiving Room
p2888
sg17
g149
sg19
VKeenum 4 Door Cabinet
p2889
sg21
VWayfair
p2890
sbsI398
(iasset
Asset
p2891
(dp2892
g3
I0
sg4
(dp2893
g6
I1
sg7
I1
sg8
I5
ssg9
VHollywood Regency
p2894
sg11
g191
sg13
g629
sg15
VGuest Room
p2895
sg17
VANIMAL FIGURINES
p2896
sg19
VHorse
p2897
sg21
VHomefuly
p2898
sbsI399
(iasset
Asset
p2899
(dp2900
g3
F7.999692307692308
sg4
(dp2901
g6
F2.18
sg7
F1.833
sg8
F3.5
ssg9
VHollywood Regency
p2902
sg11
g12
sg13
g273
sg15
VDining Room
p2903
sg17
g299
sg19
VBainbridge Side Chair
p2904
sg21
VWayfair
p2905
sbsI400
(iasset
Asset
p2906
(dp2907
g3
I4995
sg4
(dp2908
g6
F3.33
sg7
I7
sg8
F2.5
ssg9
VHollywood Regency
p2909
sg11
g12
sg13
g273
sg15
VDining Room
p2910
sg17
g337
sg19
VDALTON RECTANGULAR DINING TABLE
p2911
sg21
VRestoration Hardware
p2912
sbsI401
(iasset
Asset
p2913
(dp2914
g3
F101.33
sg4
(dp2915
g6
F1.31
sg7
F1.31
sg8
F1.7
ssg9
VHollywood Regency
p2916
sg11
g191
sg13
g629
sg15
VLiving Room
p2917
sg17
g2896
sg19
VThe Frankfurt Deer Head
p2918
sg21
VWayfair
p2919
sbsI402
(iasset
Asset
p2920
(dp2921
g3
I419
sg4
(dp2922
g6
F0.375
sg7
F0.375
sg8
F1.7
ssg9
VHollywood Regency
p2923
sg11
g52
sg13
g53
sg15
VMaster Bedroom
p2924
sg17
g696
sg19
VAQUITAINE SCONCE
p2925
sg21
VRestoration Hardware
p2926
sbsI403
(iasset
Asset
p2927
(dp2928
g3
F1649.99
sg4
(dp2929
g6
F7.91
sg7
F3.3
sg8
F2.54
ssg9
VHollywood Regency
p2930
sg11
g12
sg13
g289
sg15
VLiving Room
p2931
sg17
g660
sg19
VTanisha Leather Chesterfield Sofa
p2932
sg21
VWayfair
p2933
sbsI404
(iasset
Asset
p2934
(dp2935
g3
I1299
sg4
(dp2936
g6
F4.83
sg7
F1.5
sg8
F2.67
ssg9
VHollywood Regency
p2937
sg11
g12
sg13
g43
sg15
VMaster Bedroom
p2938
sg17
g45
sg19
VMalone Campaign 6-Drawer Dresser - Walnut
p2939
sg21
VWest Elm
p2940
sbsI405
(iasset
Asset
p2941
(dp2942
g3
I320
sg4
(dp2943
g6
F1.67
sg7
F1.5
sg8
F2.167
ssg9
VHollywood Regency
p2944
sg11
g12
sg13
g27
sg15
VMaster Bedroom
p2945
sg17
g29
sg19
VMalone Campaign Nightstand - Walnut
p2946
sg21
VWest Elm
p2947
sbsI406
(iasset
Asset
p2948
(dp2949
g3
I1200
sg4
(dp2950
g6
F5.5
sg7
F7.08
sg8
F4.67
ssg9
VHollywood Regency
p2951
sg11
g12
sg13
g14
sg15
VMaster Bedroom
p2952
sg17
g18
sg19
VAlexa Bed - Black
p2953
sg21
VWest Elm
p2954
sbsI407
(iasset
Asset
p2955
(dp2956
g3
I0
sg4
(dp2957
g6
I3
sg7
F0.1
sg8
I4
ssg9
VCOASTAL CASUAL
p2958
sg11
g201
sg13
g1988
sg15
VLiving Room
p2959
sg17
g1990
sg19
VNautical
p2960
sg21
VHomefuly
p2961
sbsI408
(iasset
Asset
p2962
(dp2963
g3
I0
sg4
(dp2964
g6
I7
sg7
F0.1
sg8
I5
ssg9
VIndustrial
p2965
sg11
g201
sg13
g1988
sg15
VStudio
p2966
sg17
g1990
sg19
VWorld Map Decor
p2967
sg21
VHomefuly
p2968
sbsI409
(iasset
Asset
p2969
(dp2970
g3
I106
sg4
(dp2971
g6
F2.5
sg7
F0.66
sg8
F5.5
ssg9
VIndustrial
p2972
sg11
g12
sg13
g147
sg15
VLiving and Dining Room
p2973
sg17
g149
sg19
VTie Grid Rack
p2974
sg21
VWayfair
p2975
sbsI410
(iasset
Asset
p2976
(dp2977
g3
I1590
sg4
(dp2978
g6
I6
sg7
F2.33
sg8
F3.5
ssg9
VIndustrial
p2979
sg11
g12
sg13
g27
sg15
VLiving and Dining Room
p2980
sg17
g2266
sg19
VPremium Bar Cabinet
p2981
sg21
VWayfair
p2982
sbsI411
(iasset
Asset
p2983
(dp2984
g3
F211.99
sg4
(dp2985
g6
F2.91
sg7
F2.91
sg8
F1.54
ssg9
VHollywood Regency
p2986
sg11
g12
sg13
g108
sg15
VLiving Room
p2987
sg17
VOttomans
p2988
sg19
VPickett Storage Ottoman
p2989
sg21
VWayfair
p2990
sbsI412
(iasset
Asset
p2991
(dp2992
g3
F369.99
sg4
(dp2993
g6
F3.85
sg7
F2.33
sg8
F1.5
ssg9
VModern
p2994
sg11
g12
sg13
g108
sg15
VLiving Room
p2995
sg17
g2988
sg19
VDumbarton Storage Ottoman Blue Grey
p2996
sg21
VWayfair
p2997
sbsI413
(iasset
Asset
p2998
(dp2999
g3
F38.98
sg4
(dp3000
g6
F0.95
sg7
F0.95
sg8
F1.167
ssg9
VCOASTAL CASUAL
p3001
sg11
g191
sg13
g1907
sg15
VLiving Room
p3002
sg17
g1909
sg19
VCara Composite Pot Planter
p3003
sg21
VWayfair
p3004
sbsI414
(iasset
Asset
p3005
(dp3006
g3
I367
sg4
(dp3007
g6
F2.5
sg7
F2.5
sg8
F3.33
ssg9
VIndustrial
p3008
sg11
g12
sg13
g27
sg15
VLiving and Dining Room
p3009
sg17
g2266
sg19
VGrigor Pub Table
p3010
sg21
VWayfair
p3011
sbsI415
(iasset
Asset
p3012
(dp3013
g3
F31.99
sg4
(dp3014
g6
F0.75
sg7
F0.75
sg8
F0.33
ssg9
VCOASTAL CASUAL
p3015
sg11
g191
sg13
g1907
sg15
VLiving Room
p3016
sg17
g1909
sg19
VAlexus Floral Pot Planter
p3017
sg21
VWayfair
p3018
sbsI416
(iasset
Asset
p3019
(dp3020
g3
F90.99
sg4
(dp3021
g6
F3.33
sg7
F0.0625
sg8
F2.167
ssg9
VCOASTAL CASUAL
p3022
sg11
g201
sg13
g202
sg15
VLiving Room
p3023
sg17
Vlandscape paintings
p3024
sg19
VSailboats at Sunrise Print
p3025
sg21
VJoss And Main
p3026
sbsI417
(iasset
Asset
p3027
(dp3028
g3
I122
sg4
(dp3029
g6
F1.41
sg7
F1.5
sg8
F3.91
ssg9
VIndustrial
p3030
sg11
g12
sg13
g108
sg15
VLiving and Dining Room
p3031
sg17
g1610
sg19
VSwivel Bar Stool
p3032
sg21
VWayfair
p3033
sbsI418
(iasset
Asset
p3034
(dp3035
g3
F91.99
sg4
(dp3036
g6
F3.33
sg7
F0.167
sg8
F2.5
ssg9
VCOASTAL CASUAL
p3037
sg11
g201
sg13
g202
sg15
VLiving Room
p3038
sg17
g3024
sg19
VQuiet Morning Canvas
p3039
sg21
VJoss And Main
p3040
sbsI419
(iasset
Asset
p3041
(dp3042
g3
I839
sg4
(dp3043
g6
F3.5
sg7
F3.33
sg8
F2.58
ssg9
VCOASTAL CASUAL
p3044
sg11
g12
sg13
g108
sg15
VLiving Room
p3045
sg17
VArm Chairs
p3046
sg19
VEliza Armchair
p3047
sg21
VWayfair
p3048
sbsI420
(iasset
Asset
p3049
(dp3050
g3
I166
sg4
(dp3051
g6
F1.55
sg7
F1.55
sg8
F2.52
ssg9
VIndustrial
p3052
sg11
g12
sg13
g108
sg15
VDining Room
p3053
sg17
g1610
sg19
VEmpire Bar Stool
p3054
sg21
VWayfair
p3055
sbsI421
(iasset
Asset
p3056
(dp3057
g3
I123
sg4
(dp3058
g6
F1.66
sg7
F1.66
sg8
F1.85
ssg9
VIndustrial
p3059
sg11
g52
sg13
g53
sg15
VLiving and Dining Room
p3060
sg17
g696
sg19
VHankinson Pendant
p3061
sg21
VWayfair
p3062
sbsI422
(iasset
Asset
p3063
(dp3064
g3
F70.21
sg4
(dp3065
g6
F0.85
sg7
F0.85
sg8
F1.35
ssg9
VCOASTAL CASUAL
p3066
sg11
g191
sg13
g1951
sg15
VLiving Room
p3067
sg17
g1953
sg19
VParisian Bottle Glass Table Vase
p3068
sg21
VWayfair
p3069
sbsI423
(iasset
Asset
p3070
(dp3071
g3
F268.99
sg4
(dp3072
g6
F2.33
sg7
F2.33
sg8
I2
ssg9
VHollywood Regency
p3073
sg11
g52
sg13
g53
sg15
VLiving Room
p3074
sg17
g55
sg19
VDevana 6-Light Candle Style Chandelier
p3075
sg21
VWayfair
p3076
sbsI424
(iasset
Asset
p3077
(dp3078
g3
I10
sg4
(dp3079
g6
F4.25
sg7
F0.04
sg8
F5.25
ssg9
VMINIMALIST
p3080
sg11
g211
sg13
g2489
sg15
VLiving Room
p3081
sg17
VWindow Curtains
p3082
sg19
VCrushed Sheer curtain
p3083
sg21
VWayfair
p3084
sbsI425
(iasset
Asset
p3085
(dp3086
g3
F279.99
sg4
(dp3087
g6
F2.83
sg7
F2.83
sg8
F3.125
ssg9
VHollywood Regency
p3088
sg11
g52
sg13
g53
sg15
VLiving Room
p3089
sg17
g55
sg19
VAlexandra 9-Light Chandelier
p3090
sg21
VWayfair
p3091
sbsI426
(iasset
Asset
p3092
(dp3093
g3
F261.8
sg4
(dp3094
g6
F2.25
sg7
F0.104
sg8
I4
ssg9
VHollywood Regency
p3095
sg11
g191
sg13
g192
sg15
VGuest Room
p3096
sg17
g194
sg19
VFarah Accent Mirror
p3097
sg21
VWayfair
p3098
sbsI427
(iasset
Asset
p3099
(dp3100
g3
F162.99
sg4
(dp3101
g6
I3
sg7
F0.125
sg8
I3
ssg9
VHollywood Regency
p3102
sg11
g191
sg13
g192
sg15
VLiving Room
p3103
sg17
g194
sg19
VJosephson Accent Mirror
p3104
sg21
VWayfair
p3105
sbsI428
(iasset
Asset
p3106
(dp3107
g3
I670
sg4
(dp3108
g6
F5.24
sg7
F1.47
sg8
F2.42
ssg9
VMINIMALIST
p3109
sg11
g12
sg13
g27
sg15
VHome Office
p3110
sg17
g2055
sg19
VDuncannon Desk
p3111
sg21
VJoss And Main
p3112
sbsI429
(iasset
Asset
p3113
(dp3114
g3
F150.99
sg4
(dp3115
g6
F1.25
sg7
F1.25
sg8
F2.33
ssg9
VHollywood Regency
p3116
sg11
g52
sg13
g77
sg15
VGuest Room
p3117
sg17
g133
sg19
VCarroll 28 Standard Table Lamp
p3118
sg21
VWayfair
p3119
sbsI430
(iasset
Asset
p3120
(dp3121
g3
F69.495
sg4
(dp3122
g6
F1.167
sg7
F1.167
sg8
I2
ssg9
VCOASTAL CASUAL
p3123
sg11
g52
sg13
g77
sg15
VKids Room
p3124
sg17
g133
sg19
VCourtney Table Lamp Marine Blue
p3125
sg21
VWayfair
p3126
sbsI431
(iasset
Asset
p3127
(dp3128
g3
F141.99
sg4
(dp3129
g6
F1.33
sg7
F1.33
sg8
F2.42
ssg9
VMid Century
p3130
sg11
g52
sg13
g77
sg15
VGuest Room
p3131
sg17
g133
sg19
VHarrisville Quatrefoil
p3132
sg21
VWayfair
p3133
sbsI432
(iasset
Asset
p3134
(dp3135
g3
F51.99
sg4
(dp3136
g6
F1.33
sg7
F1.33
sg8
F2.7
ssg9
VMid Century
p3137
sg11
g52
sg13
g77
sg15
VGuest Room
p3138
sg17
g133
sg19
VCarr Hall 32.5 Table Lamp
p3139
sg21
VWayfair
p3140
sbsI433
(iasset
Asset
p3141
(dp3142
g3
F50.99
sg4
(dp3143
g6
F1.33
sg7
F1.33
sg8
F2.54
ssg9
VMid Century
p3144
sg11
g52
sg13
g77
sg15
VMaster Bedroom
p3145
sg17
g133
sg19
VPortchester 30.5 Table Lamp
p3146
sg21
VWayfair
p3147
sbsI434
(iasset
Asset
p3148
(dp3149
g3
F149.99
sg4
(dp3150
g6
F1.33
sg7
F1.33
sg8
F2.21
ssg9
VIndustrial
p3151
sg11
g52
sg13
g77
sg15
VMaster Bedroom
p3152
sg17
g133
sg19
VGrandin 26.25 Table Lamp
p3153
sg21
VWayfair
p3154
sbsI435
(iasset
Asset
p3155
(dp3156
g3
F119.99
sg4
(dp3157
g6
F1.33
sg7
F1.33
sg8
F2.46
ssg9
VCOASTAL CASUAL
p3158
sg11
g52
sg13
g77
sg15
VMaster Bedroom
p3159
sg17
g133
sg19
VPatroclus Maybury French Blue
p3160
sg21
VWayfair
p3161
sbsI436
(iasset
Asset
p3162
(dp3163
g3
F108.47
sg4
(dp3164
g6
F1.33
sg7
F1.33
sg8
F2.45
ssg9
VMid Century
p3165
sg11
g52
sg13
g77
sg15
VMaster Bedroom
p3166
sg17
g133
sg19
VPatroclus Maybury 29.5 Table Lamp
p3167
sg21
VWayfair
p3168
sbsI437
(iasset
Asset
p3169
(dp3170
g3
F94.99
sg4
(dp3171
g6
F1.167
sg7
F1.167
sg8
F1.79
ssg9
VCOASTAL CASUAL
p3172
sg11
g52
sg13
g77
sg15
VMaster Bedroom
p3173
sg17
g133
sg19
VRoanoke Table Lamp
p3174
sg21
VWayfair
p3175
sbsI438
(iasset
Asset
p3176
(dp3177
g3
F133.99
sg4
(dp3178
g6
F1.33
sg7
F1.33
sg8
F2.22
ssg9
VTraditional
p3179
sg11
g52
sg13
g77
sg15
VLiving Room
p3180
sg17
g133
sg19
VRyan Glass Table Lamp
p3181
sg21
VWayfair
p3182
sbsI439
(iasset
Asset
p3183
(dp3184
g3
F233.99
sg4
(dp3185
g6
F1.04
sg7
F1.42
sg8
F2.625
ssg9
VCONTEMPORARY
p3186
sg11
g52
sg13
g77
sg15
VLiving Room
p3187
sg17
g133
sg19
VWagner Table Lamp
p3188
sg21
VWayfair
p3189
sbsI440
(iasset
Asset
p3190
(dp3191
g3
F82.99
sg4
(dp3192
g6
I1
sg7
I1
sg8
F1.416
ssg9
VCOASTAL CASUAL
p3193
sg11
g52
sg13
g77
sg15
VLiving Room
p3194
sg17
g133
sg19
VLa Merced 17 Table Lamp
p3195
sg21
VWayfair
p3196
sbsI441
(iasset
Asset
p3197
(dp3198
g3
F112.99
sg4
(dp3199
g6
F1.73
sg7
F1.73
sg8
F1.9
ssg9
VMid Century
p3200
sg11
g12
sg13
g108
sg15
VHome Office
p3201
sg17
g2063
sg19
VAugust Mid-Back Desk Chair-Black
p3202
sg21
VWayfair
p3203
sbsI442
(iasset
Asset
p3204
(dp3205
g3
F112.99
sg4
(dp3206
g6
F1.73
sg7
F1.73
sg8
F1.9
ssg9
VCOASTAL CASUAL
p3207
sg11
g12
sg13
g108
sg15
VLiving Room
p3208
sg17
g2063
sg19
VAugust Mid-Back Desk Chair
p3209
sg21
VWayfair
p3210
sbsI443
(iasset
Asset
p3211
(dp3212
g3
F165.99
sg4
(dp3213
g6
F3.67
sg7
F1.83
sg8
F1.67
ssg9
VCOASTAL CASUAL
p3214
sg11
g12
sg13
g27
sg15
VLiving Room
p3215
sg17
g125
sg19
VSoule Coffee Table
p3216
sg21
VWayfair
p3217
sbsI444
(iasset
Asset
p3218
(dp3219
g3
F13.86
sg4
(dp3220
g6
F4.91
sg7
F0.1
sg8
I9
ssg9
VCOASTAL CASUAL
p3221
sg11
g211
sg13
g2489
sg15
VLiving Room
p3222
sg17
g2491
sg19
VPocket Single Curtain Panel
p3223
sg21
VWayfair
p3224
sbsI445
(iasset
Asset
p3225
(dp3226
g3
F654.72
sg4
(dp3227
g6
F3.33
sg7
F3.5
sg8
I3
ssg9
VCOASTAL CASUAL
p3228
sg11
g12
sg13
g108
sg15
VLiving Room
p3229
sg17
g3046
sg19
VLandry Armchair
p3230
sg21
VWayfair
p3231
sbsI446
(iasset
Asset
p3232
(dp3233
g3
F639.99
sg4
(dp3234
g6
I4
sg7
F1.17
sg8
F3.33
ssg9
VCOASTAL CASUAL
p3235
sg11
VAppliances
p3236
sg13
VRoom Heaters
p3237
sg15
VLiving Room
p3238
sg17
VFireplaces
p3239
sg19
VChesterbrook Electric Fireplace
p3240
sg21
VJoss And Main
p3241
sbsI447
(iasset
Asset
p3242
(dp3243
g3
I0
sg4
(dp3244
g6
F8.31
sg7
F0.08
sg8
F13.69
ssg9
VCONTEMPORARY
p3245
sg11
g211
sg13
g2489
sg15
VLiving Room
p3246
sg17
g3082
sg19
VCurtains
p3247
sg21
VFlipkart
p3248
sbsI448
(iasset
Asset
p3249
(dp3250
g3
I36
sg4
(dp3251
g6
F2.66
sg7
F0.12
sg8
F2.66
ssg9
VModern
p3252
sg11
g201
sg13
g445
sg15
VLiving Room
p3253
sg17
g577
sg19
VQuiet Moments Canvas
p3254
sg21
VWayfair
p3255
sbsI449
(iasset
Asset
p3256
(dp3257
g3
I78
sg4
(dp3258
g6
F2.5
sg7
F0.12
sg8
F2.5
ssg9
VMINIMALIST
p3259
sg11
g201
sg13
g445
sg15
VLiving Room
p3260
sg17
g585
sg19
VMeeting Horses Canvas
p3261
sg21
VWayfair
p3262
sbsI450
(iasset
Asset
p3263
(dp3264
g3
I45
sg4
(dp3265
g6
F1.66
sg7
F0.08
sg8
F1.66
ssg9
VCONTEMPORARY
p3266
sg11
g201
sg13
g445
sg15
VLiving Room
p3267
sg17
g447
sg19
VMandala Graphic Art
p3268
sg21
VWayfair
p3269
sbsI451
(iasset
Asset
p3270
(dp3271
g3
F59.99
sg4
(dp3272
g6
F1.7
sg7
F0.2
sg8
F1.7
ssg9
VCOASTAL CASUAL
p3273
sg11
g211
sg13
g212
sg15
VKids Room
p3274
sg17
g455
sg19
VSudie Anchor Embroidered
p3275
sg21
VWayfair
p3276
sbsI452
(iasset
Asset
p3277
(dp3278
g3
F52.87
sg4
(dp3279
g6
I2
sg7
F0.01
sg8
I2
ssg9
VCOASTAL CASUAL
p3280
sg11
g201
sg13
g1988
sg15
VKids Room
p3281
sg17
g1990
sg19
VDecorative Wood Ship Wheel
p3282
sg21
VWayfair
p3283
sbsI453
(iasset
Asset
p3284
(dp3285
g3
F79.99
sg4
(dp3286
g6
I3
sg7
F0.17
sg8
I2
ssg9
VCOASTAL CASUAL
p3287
sg11
g201
sg13
g202
sg15
VKids Room
p3288
sg17
Vstill life paintings
p3289
sg19
VRounding the Mark Painting
p3290
sg21
VJoss And Main
p3291
sbsI454
(iasset
Asset
p3292
(dp3293
g3
I240
sg4
(dp3294
g6
F3.9
sg7
F0.95
sg8
F6.06
ssg9
VMINIMALIST
p3295
sg11
g12
sg13
g147
sg15
VHome Office
p3296
sg17
g238
sg19
VStandard Bookcase
p3297
sg21
VJoss And Main
p3298
sbsI455
(iasset
Asset
p3299
(dp3300
g3
F209.99
sg4
(dp3301
g6
I5
sg7
F7.41
sg8
F0.04
ssg9
VTRANSITIONAL
p3302
sg11
g211
sg13
g365
sg15
VKids Room
p3303
sg17
g593
sg19
VBerau Anchor Rug
p3304
sg21
VWayfair
p3305
sbsI456
(iasset
Asset
p3306
(dp3307
g3
F519.99
sg4
(dp3308
g6
F3.25
sg7
F3.33
sg8
F2.58
ssg9
VModern
p3309
sg11
g12
sg13
g108
sg15
VLiving Room
p3310
sg17
g3046
sg19
VNewton Armchair
p3311
sg21
VWayfair
p3312
sbsI457
(iasset
Asset
p3313
(dp3314
g3
F326.24
sg4
(dp3315
g6
F4.45
sg7
F2.52
sg8
F2.96
ssg9
VModern
p3316
sg11
g12
sg13
g14
sg15
VKids Room
p3317
sg17
VSingle Beds
p3318
sg19
VBabyletto Lolly White & Natural
p3319
sg21
VCrate And Barrel
p3320
sbsI458
(iasset
Asset
p3321
(dp3322
g3
I134
sg4
(dp3323
g6
F2.04
sg7
F1.97
sg8
F2.87
ssg9
VCONTEMPORARY
p3324
sg11
g12
sg13
g108
sg15
VHome Office
p3325
sg17
g2063
sg19
VAliya Desk Chair
p3326
sg21
VJoss And Main
p3327
sbsI459
(iasset
Asset
p3328
(dp3329
g3
F409.99
sg4
(dp3330
g6
F2.79
sg7
F2.83
sg8
F2.96
ssg9
VTRANSITIONAL
p3331
sg11
g12
sg13
g108
sg15
VLiving Room
p3332
sg17
VWing Chairs
p3333
sg19
VBrougham Wingback Chair
p3334
sg21
VWayfair
p3335
sbsI460
(iasset
Asset
p3336
(dp3337
g3
I64
sg4
(dp3338
g6
F3.41
sg7
F0.16
sg8
F2.91
ssg9
VCONTEMPORARY
p3339
sg11
g191
sg13
g192
sg15
VMaster Bedroom
p3340
sg17
g194
sg19
VMcnichols Mirror
p3341
sg21
VWayfair
p3342
sbsI461
(iasset
Asset
p3343
(dp3344
g3
I0
sg4
(dp3345
g6
F1.31
sg7
F1.14
sg8
F1.11
ssg9
VCONTEMPORARY
p3346
sg11
g191
sg13
g1951
sg15
VEntryway
p3347
sg17
g1953
sg19
VBasket
p3348
sg21
VFlipkart
p3349
sbsI462
(iasset
Asset
p3350
(dp3351
g3
I105
sg4
(dp3352
g6
F3.93
sg7
F0.75
sg8
F2.14
ssg9
VCONTEMPORARY
p3353
sg11
g12
sg13
g27
sg15
VEntryway
p3354
sg17
g94
sg19
VAbbottsmoor Console Table
p3355
sg21
VWayfair
p3356
sbsI463
(iasset
Asset
p3357
(dp3358
g3
I0
sg4
(dp3359
g6
I2
sg7
F1.5
sg8
F2.5
ssg9
VModern
p3360
sg11
g12
sg13
g27
sg15
VKids Room
p3361
sg17
g2055
sg19
VGreen_Study
p3362
sg21
VPepperfry
p3363
sbsI464
(iasset
Asset
p3364
(dp3365
g3
I0
sg4
(dp3366
g6
I8
sg7
F6.46
sg8
F5.98
ssg9
VModern
p3367
sg11
g12
sg13
g14
sg15
VKids Room
p3368
sg17
VBunk Beds
p3369
sg19
VAlex Daisy Boston_Green
p3370
sg21
VPepperfry
p3371
sbsI465
(iasset
Asset
p3372
(dp3373
g3
F179.29
sg4
(dp3374
g6
F1.92
sg7
F2.23
sg8
F2.91
ssg9
VMid Century
p3375
sg11
g12
sg13
g108
sg15
VHome Office
p3376
sg17
g2063
sg19
VEckard Office Chair
p3377
sg21
VWayfair
p3378
sbsI466
(iasset
Asset
p3379
(dp3380
g3
I349
sg4
(dp3381
g6
F4.67
sg7
F2.33
sg8
F2.5
ssg9
VModern
p3382
sg11
g12
sg13
g27
sg15
VHome Office
p3383
sg17
g2055
sg19
VCross-Base Desk - Polished Nickel
p3384
sg21
VWest Elm
p3385
sbsI467
(iasset
Asset
p3386
(dp3387
g3
F12.285
sg4
(dp3388
g6
F0.46
sg7
F0.46
sg8
F0.92
ssg9
VModern
p3389
sg11
g52
sg13
g77
sg15
VMaster Bedroom
p3390
sg17
g133
sg19
VAriana Table Lamp Black
p3391
sg21
VWayfair
p3392
sbsI468
(iasset
Asset
p3393
(dp3394
g3
I19
sg4
(dp3395
g6
F0.5
sg7
F0.5
sg8
I6
ssg9
VCONTEMPORARY
p3396
sg11
g52
sg13
g53
sg15
VMaster Bedroom
p3397
sg17
g696
sg19
VAluminium Hanging Light (short)
p3398
sg21
VPepperfry
p3399
sbsI469
(iasset
Asset
p3400
(dp3401
g3
I33
sg4
(dp3402
g6
F1.66
sg7
F0.33
sg8
F1.66
ssg9
VCONTEMPORARY
p3403
sg11
g211
sg13
g212
sg15
VLiving Room
p3404
sg17
g455
sg19
VBreuer Throw Pillow
p3405
sg21
VWayfair
p3406
sbsI470
(iasset
Asset
p3407
(dp3408
g3
I19
sg4
(dp3409
g6
F0.5
sg7
F0.5
sg8
I5
ssg9
VCONTEMPORARY
p3410
sg11
g52
sg13
g53
sg15
VMaster Bedroom
p3411
sg17
g696
sg19
VAluminium Hanging Light
p3412
sg21
VPepperfry
p3413
sbsI471
(iasset
Asset
p3414
(dp3415
g3
I60
sg4
(dp3416
g6
F7.5
sg7
F9.5
sg8
F0.05
ssg9
VModern
p3417
sg11
g211
sg13
g365
sg15
VLiving Room
p3418
sg17
g593
sg19
VHeilman Rug
p3419
sg21
VWayfair
p3420
sbsI472
(iasset
Asset
p3421
(dp3422
g3
I64
sg4
(dp3423
g6
I8
sg7
I10
sg8
F0.05
ssg9
VModern
p3424
sg11
g211
sg13
g365
sg15
VLiving Room
p3425
sg17
g593
sg19
VChenango Blue Rug
p3426
sg21
VWayfair
p3427
sbsI473
(iasset
Asset
p3428
(dp3429
g3
I185
sg4
(dp3430
g6
F2.41
sg7
F2.41
sg8
F1.54
ssg9
VCONTEMPORARY
p3431
sg11
g12
sg13
g108
sg15
VLiving Room
p3432
sg17
g2988
sg19
VCrane Cocktail Ottoman
p3433
sg21
VWayfair
p3434
sbsI474
(iasset
Asset
p3435
(dp3436
g3
F51.98
sg4
(dp3437
g6
F1.4
sg7
F0.5
sg8
F1.4
ssg9
VCONTEMPORARY
p3438
sg11
g211
sg13
g212
sg15
VLiving Room
p3439
sg17
g214
sg19
VThrow Pillow
p3440
sg21
VWayfair
p3441
sbsI475
(iasset
Asset
p3442
(dp3443
g3
I26
sg4
(dp3444
g6
F1.5
sg7
F0.08
sg8
F1.5
ssg9
VCONTEMPORARY
p3445
sg11
g211
sg13
g212
sg15
VLiving Room
p3446
sg17
g608
sg19
VJustus pillow cover
p3447
sg21
VWayfair
p3448
sbsI476
(iasset
Asset
p3449
(dp3450
g3
I0
sg4
(dp3451
g6
I4
sg7
F0.32
sg8
F0.65
ssg9
VCONTEMPORARY
p3452
sg11
g52
sg13
g53
sg15
VLiving Room
p3453
sg17
VCeiling Lights
p3454
sg19
VTrack lights
p3455
sg21
VFlipkart
p3456
sbsI477
(iasset
Asset
p3457
(dp3458
g3
I18
sg4
(dp3459
g6
F7.83
sg7
I10
sg8
F0.05
ssg9
VCONTEMPORARY
p3460
sg11
g211
sg13
g365
sg15
VLiving Room
p3461
sg17
g593
sg19
VPamplin Gray Area Rug
p3462
sg21
VWayfair
p3463
sbsI478
(iasset
Asset
p3464
(dp3465
g3
I146
sg4
(dp3466
g6
F1.57
sg7
F0.28
sg8
I7
ssg9
VCONTEMPORARY
p3467
sg11
g52
sg13
g77
sg15
VLiving Room
p3468
sg17
g79
sg19
VSteel Tree Floor Lamp
p3469
sg21
VWayfair
p3470
sbsI479
(iasset
Asset
p3471
(dp3472
g3
I111
sg4
(dp3473
g6
F1.01
sg7
F1.01
sg8
F1.44
ssg9
VCONTEMPORARY
p3474
sg11
g12
sg13
g27
sg15
VLiving Room
p3475
sg17
g70
sg19
VDurwood End Table
p3476
sg21
VWayfair
p3477
sbsI480
(iasset
Asset
p3478
(dp3479
g3
I448
sg4
(dp3480
g6
F2.91
sg7
F2.91
sg8
I1
ssg9
VCONTEMPORARY
p3481
sg11
g12
sg13
g27
sg15
VLiving Room
p3482
sg17
g125
sg19
VNorridge Coffee Table
p3483
sg21
VWayfair
p3484
sbsI481
(iasset
Asset
p3485
(dp3486
g3
I506
sg4
(dp3487
g6
F2.81
sg7
F2.5
sg8
F3.58
ssg9
VCONTEMPORARY
p3488
sg11
g12
sg13
g108
sg15
VLiving Room
p3489
sg17
g321
sg19
VSwivel Balloon Chair
p3490
sg21
VWayfair
p3491
sbsI482
(iasset
Asset
p3492
(dp3493
g3
I3595
sg4
(dp3494
g6
F3.33
sg7
F1.66
sg8
F7.08
ssg9
VMINIMALIST
p3495
sg11
g12
sg13
g147
sg15
VDining Room
p3496
sg17
g2230
sg19
VGEOMETRIC DOUBLE-DOOR CABINET
p3497
sg21
VRestoration Hardware
p3498
sbsI483
(iasset
Asset
p3499
(dp3500
g3
I0
sg4
(dp3501
g6
I3
sg7
I1
sg8
F1.5
ssg9
VMINIMALIST
p3502
sg11
g12
sg13
g147
sg15
VLiving Room
p3503
sg17
g238
sg19
Vneutral shelf
p3504
sg21
VPepperfry
p3505
sbsI484
(iasset
Asset
p3506
(dp3507
g3
I0
sg4
(dp3508
g6
I3
sg7
I6
sg8
F1.5
ssg9
VMINIMALIST
p3509
sg11
g12
sg13
g14
sg15
VKids Room
p3510
sg17
g3369
sg19
VNeutral bed
p3511
sg21
VFlipkart
p3512
sbsI485
(iasset
Asset
p3513
(dp3514
g3
I117
sg4
(dp3515
g6
F1.33
sg7
F3.66
sg8
F1.58
ssg9
VMINIMALIST
p3516
sg11
g12
sg13
g108
sg15
VDining Room
p3517
sg17
g329
sg19
VCrafton Wood Bench
p3518
sg21
VWayfair
p3519
sbsI486
(iasset
Asset
p3520
(dp3521
g3
I218
sg4
(dp3522
g6
F1.5
sg7
F1.73
sg8
F2.67
ssg9
VMINIMALIST
p3523
sg11
g12
sg13
g108
sg15
VDining Room
p3524
sg17
g110
sg19
VHolly Wire Dining Chair (white)
p3525
sg21
VWayfair
p3526
sbsI487
(iasset
Asset
p3527
(dp3528
g3
I271
sg4
(dp3529
g6
I5
sg7
I3
sg8
F2.5
ssg9
VMINIMALIST
p3530
sg11
g12
sg13
g273
sg15
VDining Room
p3531
sg17
g337
sg19
VDerouen Dining Table
p3532
sg21
VWayfair
p3533
sbsI488
(iasset
Asset
p3534
(dp3535
g3
F11.99
sg4
(dp3536
g6
F1.6
sg7
F0.04
sg8
F1.6
ssg9
VCONTEMPORARY
p3537
sg11
g211
sg13
g212
sg15
VLiving Room
p3538
sg17
g608
sg19
VArber Pleated Throw Pillow Cover
p3539
sg21
VWayfair
p3540
sbsI489
(iasset
Asset
p3541
(dp3542
g3
I218
sg4
(dp3543
g6
F1.52
sg7
F1.73
sg8
F2.6
ssg9
VMINIMALIST
p3544
sg11
g12
sg13
g108
sg15
VDining Room
p3545
sg17
g110
sg19
VHolly Wire Dining Chair
p3546
sg21
VWayfair
p3547
sbs.