(dp0
I0
(iasset
Asset
p1
(dp2
S'_price'
p3
I2099
sS'_dimension'
p4
(dp5
S'width'
p6
F6.42
sS'depth'
p7
F7.42
sS'height'
p8
F3.08
ssS'_theme'
p9
VMid Century
p10
sS'_category'
p11
VFurniture
p12
sS'_name'
p13
VAtwood Queen Bed without Bookcase Footboard
p14
sS'_subcategory'
p15
VBeds
p16
sS'_room_fit'
p17
VMaster Bedroom
p18
sS'_vertical'
p19
VQueen Sized Beds
p20
sS'_id'
p21
V5c2082d29222900fd2b79328
p22
sS'_brand'
p23
VCrate And Barrel
p24
sbsI1
(iasset
Asset
p25
(dp26
g3
F236.99
sg4
(dp27
g6
F1.67
sg7
F1.33
sg8
F1.83
ssg9
VMid Century
p28
sg11
g12
sg13
VTanya Mid-Century 1 Drawer Nightstand
p29
sg15
VTables
p30
sg17
VMaster Bedroom
p31
sg19
VBedside Tables
p32
sg21
V5c1f54c99222900fd2b771f2
p33
sg23
VWayfair
p34
sbsI2
(iasset
Asset
p35
(dp36
g3
I449
sg4
(dp37
g6
F1.92
sg7
F1.52
sg8
F2.08
ssg9
VMid Century
p38
sg11
g12
sg13
VTate Nightstand
p39
sg15
g30
sg17
VMaster Bedroom
p40
sg19
g32
sg21
V5c1cd1529222900fd2b76d1c
p41
sg23
VPottery Barn
p42
sbsI3
(iasset
Asset
p43
(dp44
g3
I1099
sg4
(dp45
g6
F2.67
sg7
F1.67
sg8
F4.23
ssg9
VMid Century
p46
sg11
g12
sg13
VTate 5-Drawer Chest
p47
sg15
VDrawers
p48
sg17
VMaster Bedroom
p49
sg19
VChest of Drawers
p50
sg21
V5c1c8e9d9222900fd2b76b88
p51
sg23
VCrate And Barrel
p52
sbsI4
(iasset
Asset
p53
(dp54
g3
I499
sg4
(dp55
g6
F2.67
sg7
F2.67
sg8
F2.38
ssg9
VMid Century
p56
sg11
VLighting
p57
sg13
VVERANDA ROUND CHANDELIER
p58
sg15
VLights
p59
sg17
VLiving Room
p60
sg19
VChandeliers
p61
sg21
V5c1b92ef9222900fd2b76867
p62
sg23
VPottery Barn
p63
sbsI5
(iasset
Asset
p64
(dp65
g3
I419
sg4
(dp66
g6
F1.46
sg7
F1.46
sg8
F1.04
ssg9
VMid Century
p67
sg11
g57
sg13
VGEMMA CRYSTAL TIERED FLUSH MOUNT
p68
sg15
g59
sg17
VLiving Room
p69
sg19
g61
sg21
V5c1a4c146126890722f61aa0
p70
sg23
VPottery Barn
p71
sbsI6
(iasset
Asset
p72
(dp73
g3
I399
sg4
(dp74
g6
F1.25
sg7
F1.25
sg8
F1.92
ssg9
VTRANSITIONAL
p75
sg11
g12
sg13
VClayhill end table
p76
sg15
g30
sg17
VLiving Room
p77
sg19
VEnd Tables
p78
sg21
V5c18ff446126890722f60a27
p79
sg23
VArhaus
p80
sbsI7
(iasset
Asset
p81
(dp82
g3
I389
sg4
(dp83
g6
F1.63
sg7
F1.63
sg8
F5.42
ssg9
VMid Century
p84
sg11
g57
sg13
VGRACIE SHELF FLOOR LAMP
p85
sg15
VLamps
p86
sg17
VLiving Room
p87
sg19
VFloor Lamps
p88
sg21
V5c18f3516126890722f60884
p89
sg23
VPottery Barn
p90
sbsI8
(iasset
Asset
p91
(dp92
g3
F629.1
sg4
(dp93
g6
F1.83
sg7
F1.83
sg8
F2.67
ssg9
VMid Century
p94
sg11
g57
sg13
VWooden prism chandelier with wrought iron candelabra
p95
sg15
g59
sg17
VLiving and Dining Room
p96
sg19
g61
sg21
V5c18d9f16126890722f60240
p97
sg23
VArhaus
p98
sbsI9
(iasset
Asset
p99
(dp100
g3
I40
sg4
(dp101
g6
I6
sg7
F1.17
sg8
F2.5
ssg9
VIndustrial
p102
sg11
g12
sg13
VTHADDEUS FORGED IRON & GLASS CONSOLE TABLE
p103
sg15
g30
sg17
VLiving Room
p104
sg19
VConsole Tables
p105
sg21
V5c18ca016126890722f60048
p106
sg23
VRestoration Hardware
p107
sbsI10
(iasset
Asset
p108
(dp109
g3
I1895
sg4
(dp110
g6
F3.17
sg7
F3.17
sg8
F6.67
ssg9
VIndustrial
p111
sg11
g57
sg13
VCAMINO VINTAGE CANDELABRA ROUND CHANDELIER 38"
p112
sg15
g59
sg17
VLiving Room
p113
sg19
g61
sg21
V5c17d8c66126890722f5f7a4
p114
sg23
VRestoration Hardware
p115
sbsI11
(iasset
Asset
p116
(dp117
g3
I974
sg4
(dp118
g6
F2.33
sg7
F2.96
sg8
F2.42
ssg9
VMid Century
p119
sg11
g12
sg13
VRAYLAN LEATHER ARMCHAIR
p120
sg15
VChairs
p121
sg17
VLiving Room
p122
sg19
VAccent Chairs
p123
sg21
V5c1790046126890722f5eec0
p124
sg23
VPottery Barn
p125
sbsI12
(iasset
Asset
p126
(dp127
g3
I499
sg4
(dp128
g6
F2.25
sg7
F1.42
sg8
F2.17
ssg9
VMid Century
p129
sg11
g12
sg13
VGRIFFIN RECLAIMED WOOD END TABLE
p130
sg15
g30
sg17
VLiving Room
p131
sg19
g78
sg21
V5c17783a6126890722f5eeaa
p132
sg23
VPottery Barn
p133
sbsI13
(iasset
Asset
p134
(dp135
g3
I1099
sg4
(dp136
g6
I5
sg7
F3.5
sg8
F1.58
ssg9
VMid Century
p137
sg11
g12
sg13
VGriffin Reclaimed Wood Coffee Table
p138
sg15
g30
sg17
VLiving Room
p139
sg19
VCoffee Tables
p140
sg21
V5c176a4b6126890722f5ee9f
p141
sg23
VPottery Barn
p142
sbsI14
(iasset
Asset
p143
(dp144
g3
I399
sg4
(dp145
g6
F1.5
sg7
F0.92
sg8
F2.52
ssg9
VCONTEMPORARY
p146
sg11
g57
sg13
VBarton Glass and Metal Table Lamp
p147
sg15
g86
sg17
VLiving Room
p148
sg19
VTable Lamps
p149
sg21
V5c125a63362cf55817e9819a
p150
sg23
VCrate And Barrel
p151
sbsI15
(iasset
Asset
p152
(dp153
g3
I17
sg4
(dp154
g6
F2.58
sg7
F2.58
sg8
F3.42
ssg9
VCONTEMPORARY
p155
sg11
g57
sg13
VAva Large Chandelier
p156
sg15
g59
sg17
VLiving Room
p157
sg19
g61
sg21
V5c122a39b207e30c43207ec3
p158
sg23
VCrate And Barrel
p159
sbsI16
(iasset
Asset
p160
(dp161
g3
I1050
sg4
(dp162
g6
F5.54
sg7
F1.54
sg8
F6.15
ssg9
VTRANSITIONAL
p163
sg11
g12
sg13
VWYATT DOUBLE SHELVING
p164
sg15
VDisplay Units
p165
sg17
VLiving Room
p166
sg19
VShowcase Units
p167
sg21
V5c11fc3eb207e30c43207e81
p168
sg23
VRestoration Hardware
p169
sbsI17
(iasset
Asset
p170
(dp171
g3
I1399
sg4
(dp172
g6
F4.92
sg7
F3.44
sg8
F1.73
ssg9
VTraditional
p173
sg11
g12
sg13
VAcero coffee table
p174
sg15
g30
sg17
VLiving Room
p175
sg19
g140
sg21
V5c11193fb207e30c43207e5a
p176
sg23
VArhaus
p177
sbsI18
(iasset
Asset
p178
(dp179
g3
I299
sg4
(dp180
g6
F3.75
sg7
F1.5
sg8
F5.92
ssg9
VCONTEMPORARY
p181
sg11
g57
sg13
VDexter Arc Floor Lamp with White Shade
p182
sg15
g86
sg17
VLiving Room
p183
sg19
g88
sg21
V5c10ef3cb207e30c43207c0a
p184
sg23
VCrate And Barrel
p185
sbsI19
(iasset
Asset
p186
(dp187
g3
I499
sg4
(dp188
g6
F2.83
sg7
F2.83
sg8
I4
ssg9
VHollywood Regency
p189
sg11
g57
sg13
VSputnik Chandelier - Brass
p190
sg15
g59
sg17
VLiving Room
p191
sg19
g61
sg21
V5c0a58f6b207e30c4320207c
p192
sg23
VWest Elm
p193
sbsI20
(iasset
Asset
p194
(dp195
g3
I146
sg4
(dp196
g6
F1.16
sg7
F1.16
sg8
F2.16
ssg9
VCONTEMPORARY
p197
sg11
g57
sg13
VTelescoping Table Lamp - Black
p198
sg15
g86
sg17
VMaster Bedroom
p199
sg19
g149
sg21
V5c095834b207e30c43201afa
p200
sg23
VWest Elm
p201
sbsI21
(iasset
Asset
p202
(dp203
g3
I799
sg4
(dp204
g6
I5
sg7
I2
sg8
F1.45
ssg9
VMid Century
p205
sg11
g12
sg13
VMid-Century Pop-Up Storage Coffee Table
p206
sg15
g30
sg17
VLiving Room
p207
sg19
g140
sg21
V5c08c49ab065453814eb8e31
p208
sg23
VWest Elm
p209
sbsI22
(iasset
Asset
p210
(dp211
g3
F70.99
sg4
(dp212
g6
F1.33
sg7
F0.06
sg8
F2.16
ssg9
VMid Century
p213
sg11
VDecor
p214
sg13
VRustic Bronze Wall Mirror
p215
sg15
VMirrors
p216
sg17
VLiving Room
p217
sg19
VWall Mirrors
p218
sg21
V5bfe8018bf05724c0cedcfa4
p219
sg23
VWayfair
p220
sbsI23
(iasset
Asset
p221
(dp222
g3
F27.99
sg4
(dp223
g6
F0.91
sg7
F0.12
sg8
F1.16
ssg9
VMid Century
p224
sg11
VWall Art
p225
sg13
VBird Painting Print on Canvas
p226
sg15
Vpaintings
p227
sg17
VLiving Room
p228
sg19
Vabstract paintings
p229
sg21
V5bfe5d53bf05724c0cedcd35
p230
sg23
VWayfair
p231
sbsI24
(iasset
Asset
p232
(dp233
g3
F54.99
sg4
(dp234
g6
F1.33
sg7
F0.25
sg8
F1.33
ssg9
VMid Century
p235
sg11
VFurnishing
p236
sg13
VMadison Outdoor Throw Pillow
p237
sg15
VCushions
p238
sg17
VLiving Room
p239
sg19
VCushions
p240
sg21
V5bfe49b6bf05724c0cedcce8
p241
sg23
VWayfair
p242
sbsI25
(iasset
Asset
p243
(dp244
g3
F35.99
sg4
(dp245
g6
F1.5
sg7
F0.5
sg8
F1.5
ssg9
VMid Century
p246
sg11
g236
sg13
VBehan Dot 100% Cotton Throw Pillow
p247
sg15
g238
sg17
VLiving Room
p248
sg19
g240
sg21
V5bfe42f5bf05724c0cedcb4b
p249
sg23
VWayfair
p250
sbsI26
(iasset
Asset
p251
(dp252
g3
F83.99
sg4
(dp253
g6
F4.05
sg7
F1.15
sg8
F1.25
ssg9
VMid Century
p254
sg11
g12
sg13
VWhitney TV Stand for TVs up to 48"
p255
sg15
VTV Units
p256
sg17
VLiving Room
p257
sg19
VTV Units
p258
sg21
V5bfe32bebf05724c0cedca1c
p259
sg23
VWayfair
p260
sbsI27
(iasset
Asset
p261
(dp262
g3
F139.8
sg4
(dp263
g6
F2.06
sg7
F1.33
sg8
I6
ssg9
VMid Century
p264
sg11
g12
sg13
VAldo Ladder Bookcase
p265
sg15
g165
sg17
VLiving Room
p266
sg19
VBookshelves
p267
sg21
V5bfd3005bf05724c0cedc5b6
p268
sg23
VWayfair
p269
sbsI28
(iasset
Asset
p270
(dp271
g3
F175.99
sg4
(dp272
g6
F2.88
sg7
F1.22
sg8
F2.88
ssg9
VMid Century
p273
sg11
g12
sg13
VBirchfield 4 Drawer Chest
p274
sg15
g48
sg17
VLiving Room
p275
sg19
g50
sg21
V5bfd05d3bf05724c0cedc321
p276
sg23
VWayfair
p277
sbsI29
(iasset
Asset
p278
(dp279
g3
F111.11
sg4
(dp280
g6
F1.58
sg7
F1.58
sg8
I5
ssg9
VMid Century
p281
sg11
g57
sg13
VMackenzie 60" Floor Lamp
p282
sg15
g86
sg17
VLiving Room
p283
sg19
g88
sg21
V5bfbf63dbf05724c0cedbde1
p284
sg23
VWayfair
p285
sbsI30
(iasset
Asset
p286
(dp287
g3
F164.99
sg4
(dp288
g6
F3.93
sg7
F1.12
sg8
F2.5
ssg9
VMid Century
p289
sg11
g12
sg13
VCreenagh Console Table
p290
sg15
g30
sg17
VLiving Room
p291
sg19
g105
sg21
V5bfab6fc2a043636737e3512
p292
sg23
VWayfair
p293
sbsI31
(iasset
Asset
p294
(dp295
g3
F79.99
sg4
(dp296
g6
F4.05
sg7
F1.15
sg8
F1.25
ssg9
VMid Century
p297
sg11
g12
sg13
VWhitney TV Stand for TVs up to 48
p298
sg15
g256
sg17
VLiving Room
p299
sg19
g258
sg21
V5bf918ca9412a81cd41b3d4d
p300
sg23
VWayfair
p301
sbsI32
(iasset
Asset
p302
(dp303
g3
F515.22
sg4
(dp304
g6
I5
sg7
F2.95
sg8
F2.44
ssg9
VMid Century
p305
sg11
g12
sg13
VDundas 5 Piece Dining Set
p306
sg15
VDining
p307
sg17
VLiving and Dining Room
p308
sg19
V4 Seater Dining Table Sets
p309
sg21
V5bf8f5cb9412a81cd41b3ce3
p310
sg23
VWayfair
p311
sbsI33
(iasset
Asset
p312
(dp313
g3
F143.99
sg4
(dp314
g6
F2.33
sg7
F2.33
sg8
F2.54
ssg9
VMid Century
p315
sg11
g12
sg13
VIzabella Armchair
p316
sg15
g121
sg17
VLiving Room
p317
sg19
g123
sg21
V5bf85aa29412a81cd41b3b4c
p318
sg23
VWayfair
p319
sbsI34
(iasset
Asset
p320
(dp321
g3
F729.99
sg4
(dp322
g6
F6.5
sg7
F2.75
sg8
F2.7
ssg9
VMid Century
p323
sg11
g12
sg13
VJohnston Tufted Upholstered Loveseat
p324
sg15
VSofas
p325
sg17
VLiving Room
p326
sg19
VLoveseats
p327
sg21
V5bf7b06296174b1aaf341188
p328
sg23
VWayfair
p329
sbsI35
(iasset
Asset
p330
(dp331
g3
I299
sg4
(dp332
g6
F1.7
sg7
F2.04
sg8
F2.7
ssg9
VMid Century
p333
sg11
g12
sg13
VVELVET DINING CHAIR
p334
sg15
g307
sg17
VDining Room
p335
sg19
VDining Chairs
p336
sg21
V5bd039c2be9ad9740a64c34d
p337
sg23
VWest Elm
p338
sbsI36
(iasset
Asset
p339
(dp340
g3
I299
sg4
(dp341
g6
F1.7
sg7
F2.04
sg8
F2.7
ssg9
VMid Century
p342
sg11
g12
sg13
VMID CENTURY DINING CHAIR
p343
sg15
g307
sg17
VLiving Room
p344
sg19
g336
sg21
V5bd03283be9ad9740a64c34b
p345
sg23
VWest Elm
p346
sbsI37
(iasset
Asset
p347
(dp348
g3
F169.99
sg4
(dp349
g6
F3.47
sg7
F1.18
sg8
F2.66
ssg9
VMid Century
p350
sg11
g12
sg13
VMid-Century Console - Acorn
p351
sg15
g30
sg17
VLiving Room
p352
sg19
g105
sg21
V5bd02413be9ad9740a64bf9d
p353
sg23
VWayfair
p354
sbsI38
(iasset
Asset
p355
(dp356
g3
I699
sg4
(dp357
g6
F2.1
sg7
F2.63
sg8
F2.69
ssg9
VMid Century
p358
sg11
g12
sg13
VMid-Century Show Wood Chair
p359
sg15
g121
sg17
VLiving Room
p360
sg19
VLounge Chairs
p361
sg21
V5bcd781dbe9ad9740a64afd3
p362
sg23
VWest Elm
p363
sbsI39
(iasset
Asset
p364
(dp365
g3
I499
sg4
(dp366
g6
F3.87
sg7
F1.35
sg8
F1.95
ssg9
VMid Century
p367
sg11
g12
sg13
VMid-Century Storage Bench - Acorn
p368
sg15
g121
sg17
VLiving Room
p369
sg19
VBenches
p370
sg21
V5bcd7338be9ad9740a64afd1
p371
sg23
VWest Elm
p372
sbsI40
(iasset
Asset
p373
(dp374
g3
I1399
sg4
(dp375
g6
F3.9
sg7
F3.9
sg8
F2.45
ssg9
VIndian
p376
sg11
g12
sg13
Vmid century round table
p377
sg15
g307
sg17
VLiving Room
p378
sg19
VDining Tables
p379
sg21
V5bc840e8be9ad9740a64a54d
p380
sg23
VWest Elm
p381
sbsI41
(iasset
Asset
p382
(dp383
g3
I699
sg4
(dp384
g6
F4.5
sg7
F2.6
sg8
F2.5
ssg9
VMid Century
p385
sg11
g12
sg13
Vmid century modern expandable table
p386
sg15
g307
sg17
VDining Room
p387
sg19
g309
sg21
V5bc73a61be9ad9740a64a38e
p388
sg23
VWest Elm
p389
sbsI42
(iasset
Asset
p390
(dp391
g3
I0
sg4
(dp392
g6
F1.7
sg7
F2.04
sg8
F2.7
ssg9
VMid Century
p393
sg11
g12
sg13
VMid-Century Velvet Dining Chair
p394
sg15
g307
sg17
VDining Room
p395
sg19
g309
sg21
V5bc70f96be9ad9740a64a342
p396
sg23
VWest Elm
p397
sbsI43
(iasset
Asset
p398
(dp399
g3
F182.99
sg4
(dp400
g6
F1.5
sg7
I1
sg8
F6.08
ssg9
VART DECO
p401
sg11
g12
sg13
VBuchanan Mini Bookcase
p402
sg15
g165
sg17
VLiving Room
p403
sg19
g267
sg21
V5bbf2594042c5f7edcb323ad
p404
sg23
VWayfair
p405
sbsI44
(iasset
Asset
p406
(dp407
g3
F118.99
sg4
(dp408
g6
F5.91
sg7
I9
sg8
F0.05
ssg9
VART DECO
p409
sg11
g236
sg13
VMontross Blue Area Rug
p410
sg15
VCarpets & Rugs
p411
sg17
VLiving Room
p412
sg19
VSynthetic Carpets
p413
sg21
V5bbf2053042c5f7edcb323ab
p414
sg23
VWayfair
p415
sbsI45
(iasset
Asset
p416
(dp417
g3
F144.48
sg4
(dp418
g6
I5
sg7
I8
sg8
F0.05
ssg9
VCONTEMPORARY
p419
sg11
g236
sg13
VPeoPles Blue Area Rug
p420
sg15
g411
sg17
VLiving Room
p421
sg19
g413
sg21
V5bbf1ec0042c5f7edcb323aa
p422
sg23
VWayfair
p423
sbsI46
(iasset
Asset
p424
(dp425
g3
F539.99
sg4
(dp426
g6
F2.95
sg7
F2.95
sg8
F2.5
ssg9
VART DECO
p427
sg11
g12
sg13
VGoncalvo Dining Table
p428
sg15
g307
sg17
VDining Room
p429
sg19
g309
sg21
V5bbef47f042c5f7edcb322c0
p430
sg23
VWayfair
p431
sbsI47
(iasset
Asset
p432
(dp433
g3
I799
sg4
(dp434
g6
F3.66
sg7
F3.66
sg8
F2.5
ssg9
VART DECO
p435
sg11
g12
sg13
VSilhouette Pedestal Dining Table
p436
sg15
g307
sg17
VDining Room
p437
sg19
g309
sg21
V5bbeefda042c5f7edcb322be
p438
sg23
VWest Elm
p439
sbsI48
(iasset
Asset
p440
(dp441
g3
F745.22
sg4
(dp442
g6
I6
sg7
F1.5
sg8
F3.25
ssg9
VART DECO
p443
sg11
g12
sg13
VIra TV Stand
p444
sg15
g256
sg17
VLiving Room
p445
sg19
g258
sg21
V5bbeea64042c5f7edcb322bd
p446
sg23
VWayfair
p447
sbsI49
(iasset
Asset
p448
(dp449
g3
F641.92
sg4
(dp450
g6
I5
sg7
F1.33
sg8
I3
ssg9
VART DECO
p451
sg11
g12
sg13
VKeiper Distressed Tin Pressed Credenza
p452
sg15
g256
sg17
VLiving Room
p453
sg19
g258
sg21
V5bbee803042c5f7edcb322bc
p454
sg23
VWayfair
p455
sbsI50
(iasset
Asset
p456
(dp457
g3
F459.99
sg4
(dp458
g6
F1.95
sg7
F1.83
sg8
F2.95
ssg9
VART DECO
p459
sg11
g12
sg13
VMira Bar Stool
p460
sg15
g121
sg17
VLiving Room
p461
sg19
VBar Chairs
p462
sg21
V5bbdee51042c5f7edcb3223b
p463
sg23
VWayfair
p464
sbsI51
(iasset
Asset
p465
(dp466
g3
F589.99
sg4
(dp467
g6
F1.62
sg7
F1.75
sg8
F3.45
ssg9
VART DECO
p468
sg11
g12
sg13
VAmalfi Bar Stool
p469
sg15
g121
sg17
VLiving Room
p470
sg19
g462
sg21
V5bbdeba7042c5f7edcb3223a
p471
sg23
VWayfair
p472
sbsI52
(iasset
Asset
p473
(dp474
g3
F717.21
sg4
(dp475
g6
F1.33
sg7
F0.66
sg8
F5.16
ssg9
VART DECO
p476
sg11
g57
sg13
VClara Gold Leaf Floor Lamp
p477
sg15
g86
sg17
VLiving Room
p478
sg19
g88
sg21
V5bbdc2a8042c5f7edcb32178
p479
sg23
VCrate And Barrel
p480
sbsI53
(iasset
Asset
p481
(dp482
g3
F249.99
sg4
(dp483
g6
F3.91
sg7
F1.95
sg8
F1.54
ssg9
VART DECO
p484
sg11
g12
sg13
VAstor Coffee Table
p485
sg15
g30
sg17
VLiving Room
p486
sg19
g140
sg21
V5bbdb338042c5f7edcb32174
p487
sg23
VWayfair
p488
sbsI54
(iasset
Asset
p489
(dp490
g3
I929
sg4
(dp491
g6
F3.16
sg7
F3.16
sg8
F1.41
ssg9
VART DECO
p492
sg11
g12
sg13
VConstantin Coffee Table
p493
sg15
g30
sg17
VLiving Room
p494
sg19
g140
sg21
V5bbdacf3042c5f7edcb32168
p495
sg23
VWayfair
p496
sbsI55
(iasset
Asset
p497
(dp498
g3
F42.99
sg4
(dp499
g6
F1.5
sg7
F0.12
sg8
F1.5
ssg9
VART DECO
p500
sg11
g225
sg13
VArt Deco III
p501
sg15
Vart panels
p502
sg17
VLiving Room
p503
sg19
Vabstract art panels
p504
sg21
V5bbda67f042c5f7edcb32167
p505
sg23
VWayfair
p506
sbsI56
(iasset
Asset
p507
(dp508
g3
F40.99
sg4
(dp509
g6
F1.33
sg7
F0.33
sg8
F1.33
ssg9
VART DECO
p510
sg11
g236
sg13
VArt Deco Lady Throw Pillow
p511
sg15
g238
sg17
VLiving Room
p512
sg19
VPillows
p513
sg21
V5bbda487042c5f7edcb32166
p514
sg23
VWayfair
p515
sbsI57
(iasset
Asset
p516
(dp517
g3
F14.59
sg4
(dp518
g6
F5.16
sg7
F7.16
sg8
F0.05
ssg9
VART DECO
p519
sg11
g236
sg13
VEdolie Area Rug
p520
sg15
g411
sg17
VLiving Room
p521
sg19
g413
sg21
V5bbd9eae042c5f7edcb3215c
p522
sg23
VWayfair
p523
sbsI58
(iasset
Asset
p524
(dp525
g3
F75.99
sg4
(dp526
g6
F5.16
sg7
F7.58
sg8
F0.05
ssg9
VART DECO
p527
sg11
g236
sg13
VArt Deco Teal Area Rug
p528
sg15
g411
sg17
VLiving Room
p529
sg19
g413
sg21
V5bbd9e35042c5f7edcb3215b
p530
sg23
VWayfair
p531
sbsI59
(iasset
Asset
p532
(dp533
g3
F639.18
sg4
(dp534
g6
I8
sg7
I10
sg8
F0.05
ssg9
VCONTEMPORARY
p535
sg11
g236
sg13
Vdoppler black and white rug
p536
sg15
g411
sg17
VLiving Room
p537
sg19
VCotton Carpets
p538
sg21
V5bbc91387045b9743ee74398
p539
sg23
VCB2
p540
sbsI60
(iasset
Asset
p541
(dp542
g3
I419
sg4
(dp543
g6
F2.83
sg7
F3.04
sg8
F1.37
ssg9
VCONTEMPORARY
p544
sg11
g12
sg13
VStacked Disk Storage Coffee Table
p545
sg15
g30
sg17
VLiving Room
p546
sg19
g140
sg21
V5bbc86097045b9743ee74396
p547
sg23
VWest Elm
p548
sbsI61
(iasset
Asset
p549
(dp550
g3
I599
sg4
(dp551
g6
I3
sg7
I3
sg8
F1.33
ssg9
VCONTEMPORARY
p552
sg11
g12
sg13
VTiered Quartz Coffee Table
p553
sg15
g30
sg17
VLiving Room
p554
sg19
g140
sg21
V5bbc85927045b9743ee74395
p555
sg23
VWest Elm
p556
sbsI62
(iasset
Asset
p557
(dp558
g3
F63.99
sg4
(dp559
g6
F1.75
sg7
F0.33
sg8
F2.08
ssg9
VIndustrial
p560
sg11
g12
sg13
VPavo 16 Bottle Hanging Wine Rack
p561
sg15
g165
sg17
VLiving Room
p562
sg19
VWall Shelves
p563
sg21
V5bbc6f647045b9743ee741bd
p564
sg23
VWayfair
p565
sbsI63
(iasset
Asset
p566
(dp567
g3
F63.99
sg4
(dp568
g6
F1.75
sg7
F0.33
sg8
F2.08
ssg9
VIndustrial
p569
sg11
g12
sg13
VPavo 16 Bottle Hanging Wine Rack
p570
sg15
g165
sg17
VLiving Room
p571
sg19
g563
sg21
V5bbc6f627045b9743ee741bc
p572
sg23
VWayfair
p573
sbsI64
(iasset
Asset
p574
(dp575
g3
F37.99
sg4
(dp576
g6
F0.83
sg7
F0.33
sg8
F1.91
ssg9
VIndustrial
p577
sg11
g12
sg13
VWall Mounted Wine Rack
p578
sg15
g165
sg17
VLiving Room
p579
sg19
g563
sg21
V5bbc6ecb7045b9743ee741bb
p580
sg23
VWayfair
p581
sbsI65
(iasset
Asset
p582
(dp583
g3
I2175
sg4
(dp584
g6
I4
sg7
I4
sg8
F2.6
ssg9
VIndustrial
p585
sg11
g57
sg13
VVR Chandelier
p586
sg15
g59
sg17
VLiving Room
p587
sg19
g61
sg21
V5bbc4ec846a4a030c2aaef92
p588
sg23
VRestoration Hardware
p589
sbsI66
(iasset
Asset
p590
(dp591
g3
F85.77
sg4
(dp592
g6
F2.33
sg7
F2.33
sg8
F0.41
ssg9
VIndustrial
p593
sg11
g236
sg13
Vbraided jute floor cushion
p594
sg15
g238
sg17
VLiving Room
p595
sg19
g240
sg21
V5bbba2eb46a4a030c2aaee50
p596
sg23
VCB2
p597
sbsI67
(iasset
Asset
p598
(dp599
g3
F85.77
sg4
(dp600
g6
F2.33
sg7
F2.33
sg8
F0.41
ssg9
VIndustrial
p601
sg11
g236
sg13
Vbraided jute floor cushion
p602
sg15
g238
sg17
VLiving Room
p603
sg19
g240
sg21
V5bbba2ea46a4a030c2aaee4f
p604
sg23
VCB2
p605
sbsI68
(iasset
Asset
p606
(dp607
g3
F92.99
sg4
(dp608
g6
F2.16
sg7
F2.16
sg8
F0.5
ssg9
VIndustrial
p609
sg11
g236
sg13
VEduarda Graphic Floor Pillow
p610
sg15
g238
sg17
VLiving Room
p611
sg19
g240
sg21
V5bbba0de46a4a030c2aaee4e
p612
sg23
VWayfair
p613
sbsI69
(iasset
Asset
p614
(dp615
g3
F71.99
sg4
(dp616
g6
F2.16
sg7
F2.16
sg8
F0.5
ssg9
VModern
p617
sg11
g236
sg13
VCabana Classic Floor Pillow
p618
sg15
g238
sg17
VLiving Room
p619
sg19
g240
sg21
V5bbb9f0a46a4a030c2aaee4d
p620
sg23
VWayfair
p621
sbsI70
(iasset
Asset
p622
(dp623
g3
F1286.33
sg4
(dp624
g6
I4
sg7
I4
sg8
F2.45
ssg9
VIndustrial
p625
sg11
g12
sg13
VRound Adjustable Height Dining Table
p626
sg15
g307
sg17
VDining Room
p627
sg19
g309
sg21
V5bbb952b46a4a030c2aaee4c
p628
sg23
VCrate And Barrel
p629
sbsI71
(iasset
Asset
p630
(dp631
g3
F1071.76
sg4
(dp632
g6
F4.58
sg7
F2.95
sg8
F2.5
ssg9
VIndustrial
p633
sg11
g12
sg13
Vfuze grey dining table
p634
sg15
g307
sg17
VDining Room
p635
sg19
g309
sg21
V5bbb91c846a4a030c2aaee4b
p636
sg23
VCB2
p637
sbsI72
(iasset
Asset
p638
(dp639
g3
F427.75
sg4
(dp640
g6
F2.62
sg7
F2.62
sg8
F1.27
ssg9
VIndustrial
p641
sg11
g12
sg13
Velement coffee table
p642
sg15
g30
sg17
VLiving Room
p643
sg19
g140
sg21
V5bbb52c146a4a030c2aaecb6
p644
sg23
VCB2
p645
sbsI73
(iasset
Asset
p646
(dp647
g3
F36.99
sg4
(dp648
g6
F1.5
sg7
F0.06
sg8
F2.16
ssg9
VBohemian
p649
sg11
g225
sg13
VBohemian Feather V Painting
p650
sg15
g502
sg17
VLiving Room
p651
sg19
Vfloral art panels
p652
sg21
V5bb731570fa9482610a8a851
p653
sg23
VWayfair
p654
sbsI74
(iasset
Asset
p655
(dp656
g3
F219.99
sg4
(dp657
g6
F1.66
sg7
F0.29
sg8
F1.33
ssg9
VBohemian
p658
sg11
g225
sg13
VBohemian Birds' Print on Fabric
p659
sg15
g502
sg17
VLiving Room
p660
sg19
Vwildlife art panels
p661
sg21
V5bb72fec0fa9482610a8a845
p662
sg23
VWayfair
p663
sbsI75
(iasset
Asset
p664
(dp665
g3
F35.49
sg4
(dp666
g6
F3.25
sg7
F5.25
sg8
F0.05
ssg9
VBohemian
p667
sg11
g236
sg13
VMassaoud Area Rug
p668
sg15
g411
sg17
VMaster Bedroom
p669
sg19
VWool Carpets
p670
sg21
V5bb70ba00fa9482610a8a7a1
p671
sg23
VWayfair
p672
sbsI76
(iasset
Asset
p673
(dp674
g3
F38.99
sg4
(dp675
g6
I5
sg7
I8
sg8
F0.05
ssg9
VBohemian
p676
sg11
g236
sg13
VNewburyport Orange Area Rug
p677
sg15
g411
sg17
VLiving Room
p678
sg19
g413
sg21
V5bb70a5f0fa9482610a8a796
p679
sg23
VWayfair
p680
sbsI77
(iasset
Asset
p681
(dp682
g3
F21.99
sg4
(dp683
g6
F1.5
sg7
F0.33
sg8
F1.5
ssg9
VBohemian
p684
sg11
g236
sg13
VBilbie Square 100% Cotton Pillow Cover
p685
sg15
g238
sg17
VLiving Room
p686
sg19
VPillow Covers
p687
sg21
V5bb709530fa9482610a8a794
p688
sg23
VWayfair
p689
sbsI78
(iasset
Asset
p690
(dp691
g3
F141.6
sg4
(dp692
g6
F1.58
sg7
F1.95
sg8
F3.16
ssg9
VBohemian
p693
sg11
g12
sg13
VRidgefield Parsons Chair
p694
sg15
g121
sg17
VLiving Room
p695
sg19
g123
sg21
V5bb706840fa9482610a8a793
p696
sg23
VWayfair
p697
sbsI79
(iasset
Asset
p698
(dp699
g3
F165.99
sg4
(dp700
g6
F5.25
sg7
I1
sg8
F3.41
ssg9
VModern
p701
sg11
g12
sg13
VMonier TV Stand
p702
sg15
g256
sg17
VLiving Room
p703
sg19
g258
sg21
V5bb5e6c6148e106c53d48e6c
p704
sg23
VWayfair
p705
sbsI80
(iasset
Asset
p706
(dp707
g3
F40.99
sg4
(dp708
g6
I1
sg7
F0.25
sg8
F1.25
ssg9
VModern
p709
sg11
g214
sg13
VMetal Medallion Sculpture
p710
sg15
VCurios and showpieces
p711
sg17
VLiving Room
p712
sg19
Vshowpieces
p713
sg21
V5bb5e4f3148e106c53d48de3
p714
sg23
VWayfair
p715
sbsI81
(iasset
Asset
p716
(dp717
g3
F43.99
sg4
(dp718
g6
I2
sg7
F0.08
sg8
F1.33
ssg9
VCONTEMPORARY
p719
sg11
g225
sg13
VTurquoise Succulent
p720
sg15
g502
sg17
VLiving Room
p721
sg19
g652
sg21
V5bb5e45d148e106c53d48dd4
p722
sg23
VWayfair
p723
sbsI82
(iasset
Asset
p724
(dp725
g3
F22.99
sg4
(dp726
g6
F8.16
sg7
F9.83
sg8
F0.05
ssg9
VCONTEMPORARY
p727
sg11
g236
sg13
VBlack & Beige Area Rug
p728
sg15
g411
sg17
VLiving Room
p729
sg19
g670
sg21
V5bb5b34df6e7913d9a511db7
p730
sg23
VWayfair
p731
sbsI83
(iasset
Asset
p732
(dp733
g3
F130.22
sg4
(dp734
g6
F4.83
sg7
F1.33
sg8
F2.08
ssg9
VCONTEMPORARY
p735
sg11
g12
sg13
VBissonnette 58 TV Stand
p736
sg15
g256
sg17
VLiving Room
p737
sg19
g258
sg21
V5bb5ac99f6e7913d9a511db5
p738
sg23
VWayfair
p739
sbsI84
(iasset
Asset
p740
(dp741
g3
F600.99
sg4
(dp742
g6
F7.33
sg7
F3.08
sg8
F3.08
ssg9
VCONTEMPORARY
p743
sg11
g12
sg13
VDerry Sofa
p744
sg15
g325
sg17
VLiving Room
p745
sg19
Vsofa sets
p746
sg21
V5bb5a518f6e7913d9a511db4
p747
sg23
VWayfair
p748
sbsI85
(iasset
Asset
p749
(dp750
g3
I326
sg4
(dp751
g6
I5
sg7
F1.16
sg8
F1.5
ssg9
VRUSTIC
p752
sg11
g12
sg13
VLuro Sheesham Wood Bench
p753
sg15
g121
sg17
VLiving Room
p754
sg19
g370
sg21
V5bb4cc49f6e7913d9a511c0f
p755
sg23
VWayfair
p756
sbsI86
(iasset
Asset
p757
(dp758
g3
F92.99
sg4
(dp759
g6
F2.14
sg7
I2
sg8
F2.8
ssg9
VScandinavian
p760
sg11
g12
sg13
VTrent Side Chair-Red
p761
sg15
g121
sg17
VLiving Room
p762
sg19
g123
sg21
V5bb4aa2ff6e7913d9a511a3d
p763
sg23
VWayfair
p764
sbsI87
(iasset
Asset
p765
(dp766
g3
F110.02
sg4
(dp767
g6
F2.04
sg7
F2.1667
sg8
F2.83
ssg9
VScandinavian
p768
sg11
g12
sg13
VTrent Side Chair-Blue
p769
sg15
g121
sg17
VLiving Room
p770
sg19
g123
sg21
V5bb4a6b2f6e7913d9a511936
p771
sg23
VWayfair
p772
sbsI88
(iasset
Asset
p773
(dp774
g3
I62
sg4
(dp775
g6
I7
sg7
I10
sg8
F0.05
ssg9
VModern
p776
sg11
g236
sg13
VChenango Rectangle Cream Area Rug
p777
sg15
g411
sg17
VLiving Room
p778
sg19
g670
sg21
V5bb4a65ff6e7913d9a511935
p779
sg23
VWayfair
p780
sbsI89
(iasset
Asset
p781
(dp782
g3
I100
sg4
(dp783
g6
F0.83
sg7
F0.75
sg8
F0.83
ssg9
VScandinavian
p784
sg11
g57
sg13
VDelon 1-Light Lantern Pendant
p785
sg15
g59
sg17
VLiving Room
p786
sg19
VHanging Lights
p787
sg21
V5bb49dcbf6e7913d9a511905
p788
sg23
VWayfair
p789
sbsI90
(iasset
Asset
p790
(dp791
g3
I450
sg4
(dp792
g6
F3.91
sg7
F2.58
sg8
F1.37
ssg9
VIndustrial
p793
sg11
g12
sg13
VGordillo Coffee Table
p794
sg15
g30
sg17
VLiving Room
p795
sg19
g140
sg21
V5bb49592f6e7913d9a51186e
p796
sg23
VWayfair
p797
sbsI91
(iasset
Asset
p798
(dp799
g3
F12.99
sg4
(dp800
g6
F1.667
sg7
F0.25
sg8
F1.667
ssg9
VScandinavian
p801
sg11
g236
sg13
VAntonia Cotton Throw Pillow Cover
p802
sg15
g238
sg17
VLiving Room
p803
sg19
g687
sg21
V5bb493bcf6e7913d9a511843
p804
sg23
VWayfair
p805
sbsI92
(iasset
Asset
p806
(dp807
g3
F24.38
sg4
(dp808
g6
F1.667
sg7
F0.25
sg8
F1.667
ssg9
VScandinavian
p809
sg11
g236
sg13
VSteele Cotton Pillow Cover
p810
sg15
g238
sg17
VLiving Room
p811
sg19
g687
sg21
V5bb491cdf6e7913d9a511842
p812
sg23
VWayfair
p813
sbsI93
(iasset
Asset
p814
(dp815
g3
F12.78
sg4
(dp816
g6
F1.667
sg7
F0.25
sg8
F1.667
ssg9
VScandinavian
p817
sg11
g236
sg13
VHalverson Cotton Pillow Cover-Blue
p818
sg15
g238
sg17
VLiving Room
p819
sg19
g687
sg21
V5bb490cff6e7913d9a511841
p820
sg23
VWayfair
p821
sbsI94
(iasset
Asset
p822
(dp823
g3
F12.78
sg4
(dp824
g6
F1.5
sg7
F0.25
sg8
F1.5
ssg9
VScandinavian
p825
sg11
g236
sg13
VHalverson Cotton Pillow Cover
p826
sg15
g238
sg17
VLiving Room
p827
sg19
g687
sg21
V5bb49000f6e7913d9a511840
p828
sg23
VWayfair
p829
sbsI95
(iasset
Asset
p830
(dp831
g3
F22.49
sg4
(dp832
g6
F1.5
sg7
F0.25
sg8
F1.5
ssg9
VScandinavian
p833
sg11
g236
sg13
VJustus Cotton Pillow Cover
p834
sg15
g238
sg17
VLiving Room
p835
sg19
g687
sg21
V5bb48e7bf6e7913d9a51183f
p836
sg23
VWayfair
p837
sbsI96
(iasset
Asset
p838
(dp839
g3
F24.52
sg4
(dp840
g6
F1.6
sg7
F0.2
sg8
F1.6
ssg9
VScandinavian
p841
sg11
g236
sg13
VBilbie Square Cotton Pillow Cover
p842
sg15
g238
sg17
VLiving Room
p843
sg19
g687
sg21
V5bb48d85f6e7913d9a51182e
p844
sg23
VWayfair
p845
sbsI97
(iasset
Asset
p846
(dp847
g3
I21
sg4
(dp848
g6
F1.33
sg7
F0.33
sg8
F1.33
ssg9
VIndustrial
p849
sg11
g236
sg13
VCopeland 1 Printed Throw Pillow
p850
sg15
g238
sg17
VLiving Room
p851
sg19
g513
sg21
V5bb48765f6e7913d9a51182c
p852
sg23
VWayfair
p853
sbsI98
(iasset
Asset
p854
(dp855
g3
F233.99
sg4
(dp856
g6
F2.27
sg7
F2.44
sg8
F2.69
ssg9
VMid Century
p857
sg11
g12
sg13
VDelasandro Accent Armchair
p858
sg15
g121
sg17
VLiving Room
p859
sg19
g123
sg21
V5bb47ad7f6e7913d9a51182b
p860
sg23
VWayfair
p861
sbsI99
(iasset
Asset
p862
(dp863
g3
I87
sg4
(dp864
g6
F2.99
sg7
I1
sg8
F2.46
ssg9
VRUSTIC
p865
sg11
g12
sg13
VGalvanized Accent Shelf
p866
sg15
g165
sg17
VLiving Room
p867
sg19
g563
sg21
V5bb47a5bf6e7913d9a51182a
p868
sg23
VWayfair
p869
sbsI100
(iasset
Asset
p870
(dp871
g3
I46
sg4
(dp872
g6
I2
sg7
F0.45
sg8
F0.16
ssg9
VRUSTIC
p873
sg11
g12
sg13
VEvonne Floating Shelf
p874
sg15
g165
sg17
VLiving Room
p875
sg19
g563
sg21
V5bb47110f6e7913d9a511826
p876
sg23
VWayfair
p877
sbsI101
(iasset
Asset
p878
(dp879
g3
I188
sg4
(dp880
g6
F2.95
sg7
F2.95
sg8
F1.05
ssg9
VRUSTIC
p881
sg11
g12
sg13
VTreece Coffee Table
p882
sg15
g30
sg17
VLiving Room
p883
sg19
g140
sg21
V5bb37489f6e7913d9a511540
p884
sg23
VWayfair
p885
sbsI102
(iasset
Asset
p886
(dp887
g3
I516
sg4
(dp888
g6
F5.33
sg7
I3
sg8
F1.66
ssg9
VCONTEMPORARY
p889
sg11
g12
sg13
VMasuda 2 Piece Coffee Table Set
p890
sg15
g30
sg17
VLiving Room
p891
sg19
g140
sg21
V5bb36ec7f6e7913d9a511423
p892
sg23
VWayfair
p893
sbsI103
(iasset
Asset
p894
(dp895
g3
I189
sg4
(dp896
g6
F0.83
sg7
F0.83
sg8
F5.8
ssg9
VCONTEMPORARY
p897
sg11
g57
sg13
VAakash Floor Lamp
p898
sg15
g86
sg17
VLiving Room
p899
sg19
g88
sg21
V5bb365daf6e7913d9a51140f
p900
sg23
VWayfair
p901
sbsI104
(iasset
Asset
p902
(dp903
g3
F153.99
sg4
(dp904
g6
F1.5
sg7
F1.5
sg8
F1.18
ssg9
VScandinavian
p905
sg11
g12
sg13
VHowerton Coffee Table
p906
sg15
g30
sg17
VLiving Room
p907
sg19
g140
sg21
V5bb361c3f6e7913d9a511403
p908
sg23
VWayfair
p909
sbsI105
(iasset
Asset
p910
(dp911
g3
I42
sg4
(dp912
g6
F1.5
sg7
F0.12
sg8
F1.5
ssg9
VRUSTIC
p913
sg11
g225
sg13
VHigh Country Moose
p914
sg15
g502
sg17
VLiving Room
p915
sg19
g661
sg21
V5bb35f7ff6e7913d9a5113f5
p916
sg23
VWayfair
p917
sbsI106
(iasset
Asset
p918
(dp919
g3
I39
sg4
(dp920
g6
I2
sg7
F0.12
sg8
I2
ssg9
VRUSTIC
p921
sg11
g225
sg13
VNature's Palette II
p922
sg15
g502
sg17
VLiving Room
p923
sg19
VLandscape Art Panels
p924
sg21
V5bb35bb1f6e7913d9a5113e8
p925
sg23
VWayfair
p926
sbsI107
(iasset
Asset
p927
(dp928
g3
I40
sg4
(dp929
g6
F0.58
sg7
F0.0525
sg8
F0.94
ssg9
VScandinavian
p930
sg11
g214
sg13
VDima Mirror Set-Black
p931
sg15
g216
sg17
VLiving Room
p932
sg19
g218
sg21
V5bb35af3f6e7913d9a5113e7
p933
sg23
VAll Modern
p934
sbsI108
(iasset
Asset
p935
(dp936
g3
I40
sg4
(dp937
g6
F0.58
sg7
F0.0525
sg8
F0.94
ssg9
VScandinavian
p938
sg11
g214
sg13
VDima Mirror Set-Copper
p939
sg15
g216
sg17
VLiving Room
p940
sg19
g218
sg21
V5bb359baf6e7913d9a5113cf
p941
sg23
VAll Modern
p942
sbsI109
(iasset
Asset
p943
(dp944
g3
I42
sg4
(dp945
g6
I2
sg7
F0.12
sg8
F1.33
ssg9
VRUSTIC
p946
sg11
g225
sg13
VBranching Out III
p947
sg15
g502
sg17
VLiving Room
p948
sg19
g924
sg21
V5bb3597ef6e7913d9a5113ce
p949
sg23
VWayfair
p950
sbsI110
(iasset
Asset
p951
(dp952
g3
I272
sg4
(dp953
g6
F4.44
sg7
F1.5
sg8
F2.49
ssg9
VIndustrial
p954
sg11
g12
sg13
VSchuyler TV Stand
p955
sg15
g256
sg17
VLiving Room
p956
sg19
g258
sg21
V5bb35697f6e7913d9a5113c3
p957
sg23
VWayfair
p958
sbsI111
(iasset
Asset
p959
(dp960
g3
I1379
sg4
(dp961
g6
F5.5
sg7
F1.44
sg8
F3.2
ssg9
VRUSTIC
p962
sg11
g12
sg13
VPullman TV Stand
p963
sg15
g256
sg17
VLiving Room
p964
sg19
g258
sg21
V5bb35253f6e7913d9a5113c2
p965
sg23
VWayfair
p966
sbsI112
(iasset
Asset
p967
(dp968
g3
F79.95
sg4
(dp969
g6
F1.667
sg7
F1.667
sg8
F1.167
ssg9
VScandinavian
p970
sg11
g12
sg13
Vknitted silver grey pouf
p971
sg15
g121
sg17
VLiving Room
p972
sg19
VPoufs
p973
sg21
V5bb34d39f6e7913d9a5113c1
p974
sg23
VCB2
p975
sbsI113
(iasset
Asset
p976
(dp977
g3
F59.95
sg4
(dp978
g6
F1.667
sg7
F0.1
sg8
F1.667
ssg9
VScandinavian
p979
sg11
g236
sg13
Vasterix geometric pillow
p980
sg15
g238
sg17
VLiving Room
p981
sg19
g687
sg21
V5bb348c3f6e7913d9a511393
p982
sg23
VCB2
p983
sbsI114
(iasset
Asset
p984
(dp985
g3
F39.95
sg4
(dp986
g6
F1.667
sg7
F0.5
sg8
F1.667
ssg9
VMid Century
p987
sg11
g236
sg13
Vglitterati gold pillow
p988
sg15
g238
sg17
VLiving Room
p989
sg19
g513
sg21
V5bb33f2d6359cc2b9ebc1180
p990
sg23
VCB2
p991
sbsI115
(iasset
Asset
p992
(dp993
g3
F118.99
sg4
(dp994
g6
F1.667
sg7
F0.125
sg8
F1.667
ssg9
VScandinavian
p995
sg11
g225
sg13
VMid Century Pyramids
p996
sg15
g502
sg17
VLiving Room
p997
sg19
g504
sg21
V5bb33b826359cc2b9ebc117e
p998
sg23
VWayfair
p999
sbsI116
(iasset
Asset
p1000
(dp1001
g3
F62.99
sg4
(dp1002
g6
F1.5
sg7
F0.125
sg8
I1
ssg9
VMid Century
p1003
sg11
g225
sg13
VMid Century II Graphic Art
p1004
sg15
g502
sg17
VLiving Room
p1005
sg19
g504
sg21
V5bb339376359cc2b9ebc117d
p1006
sg23
VWayfair
p1007
sbsI117
(iasset
Asset
p1008
(dp1009
g3
F55.99
sg4
(dp1010
g6
F1.5
sg7
F0.125
sg8
I1
ssg9
VMid Century
p1011
sg11
g225
sg13
VMid Century - Three Trees
p1012
sg15
g502
sg17
VLiving Room
p1013
sg19
g504
sg21
V5bb3383e6359cc2b9ebc117c
p1014
sg23
VWayfair
p1015
sbsI118
(iasset
Asset
p1016
(dp1017
g3
I0
sg4
(dp1018
g6
F2.46
sg7
F2.46
sg8
F2.62
ssg9
VModern
p1019
sg11
g12
sg13
VLounge chair
p1020
sg15
g121
sg17
VLiving Room
p1021
sg19
g361
sg21
V5bb207d26ba8514ed50c5c0f
p1022
sg23
VWayfair
p1023
sbsI119
(iasset
Asset
p1024
(dp1025
g3
I435
sg4
(dp1026
g6
F4.5
sg7
F0.05
sg8
I6
ssg9
VIndustrial
p1027
sg11
g225
sg13
VLouise Gray Quilt
p1028
sg15
g502
sg17
VLiving Room
p1029
sg19
g504
sg21
V5baf4eb16ba8514ed50c5bd0
p1030
sg23
VWest Elm
p1031
sbsI120
(iasset
Asset
p1032
(dp1033
g3
I250
sg4
(dp1034
g6
I3
sg7
F0.05
sg8
I4
ssg9
VIndustrial
p1035
sg11
g225
sg13
VLouise Gray Little Quilt
p1036
sg15
g502
sg17
VLiving Room
p1037
sg19
g504
sg21
V5baf4cd06ba8514ed50c5bcf
p1038
sg23
VWest Elm
p1039
sbsI121
(iasset
Asset
p1040
(dp1041
g3
I239
sg4
(dp1042
g6
F2.16
sg7
F0.05
sg8
F2.83
ssg9
VModern
p1043
sg11
g225
sg13
VMinted - Seawall
p1044
sg15
g502
sg17
VLiving Room
p1045
sg19
g504
sg21
V5bae02a56ba8514ed50c5b98
p1046
sg23
VWest Elm
p1047
sbsI122
(iasset
Asset
p1048
(dp1049
g3
I263
sg4
(dp1050
g6
I3
sg7
F0.08
sg8
I2
ssg9
VModern
p1051
sg11
g225
sg13
VThe Arts Capsule
p1052
sg15
g502
sg17
VLiving Room
p1053
sg19
g504
sg21
V5bae00c66ba8514ed50c5b5b
p1054
sg23
VWest Elm
p1055
sbsI123
(iasset
Asset
p1056
(dp1057
g3
I139
sg4
(dp1058
g6
F2.16
sg7
F0.41
sg8
F3.08
ssg9
VModern
p1059
sg11
g225
sg13
VPapier-Mache Wall Art - Geo Panel
p1060
sg15
g502
sg17
VLiving Room
p1061
sg19
g504
sg21
V5baccaeff120bf1cd05158f0
p1062
sg23
VWest Elm
p1063
sbsI124
(iasset
Asset
p1064
(dp1065
g3
I139
sg4
(dp1066
g6
F2.16
sg7
F0.41
sg8
F3.08
ssg9
VModern
p1067
sg11
g225
sg13
VPapier-Mache Wall Art Panel 2
p1068
sg15
g502
sg17
VLiving Room
p1069
sg19
g504
sg21
V5bacc9e7f120bf1cd05158ef
p1070
sg23
VWest Elm
p1071
sbsI125
(iasset
Asset
p1072
(dp1073
g3
I139
sg4
(dp1074
g6
F2.16
sg7
F0.41
sg8
F3.08
ssg9
VCONTEMPORARY
p1075
sg11
g225
sg13
VPapier-Mache Wall Art
p1076
sg15
g502
sg17
VLiving Room
p1077
sg19
g504
sg21
V5bacc86af120bf1cd05158ee
p1078
sg23
VWest Elm
p1079
sbsI126
(iasset
Asset
p1080
(dp1081
g3
I29
sg4
(dp1082
g6
F1.66
sg7
F0.33
sg8
F1.66
ssg9
VTRANSITIONAL
p1083
sg11
g236
sg13
VPressed Velvet Pillow Covers
p1084
sg15
g238
sg17
VMaster Bedroom
p1085
sg19
g687
sg21
V5bacc5cbf120bf1cd05158ed
p1086
sg23
VWest Elm
p1087
sbsI127
(iasset
Asset
p1088
(dp1089
g3
I29
sg4
(dp1090
g6
F1.66
sg7
F0.33
sg8
F1.66
ssg9
VTRANSITIONAL
p1091
sg11
g236
sg13
VPressed Velvet Covers
p1092
sg15
g238
sg17
VLiving Room
p1093
sg19
g687
sg21
V5bacc466f120bf1cd05158ec
p1094
sg23
VWest Elm
p1095
sbsI128
(iasset
Asset
p1096
(dp1097
g3
I30
sg4
(dp1098
g6
F1.66
sg7
F0.33
sg8
F1.66
ssg9
VModern
p1099
sg11
g236
sg13
VIkat Pillow Covers
p1100
sg15
g238
sg17
VLiving Room
p1101
sg19
VCushion Covers
p1102
sg21
V5bacc320f120bf1cd05158eb
p1103
sg23
VWest Elm
p1104
sbsI129
(iasset
Asset
p1105
(dp1106
g3
I155
sg4
(dp1107
g6
F1.75
sg7
F0.33
sg8
I1
ssg9
VModern
p1108
sg11
g236
sg13
VLouise Gray Pillow
p1109
sg15
g238
sg17
VLiving Room
p1110
sg19
g513
sg21
V5bacbff4f120bf1cd05158ea
p1111
sg23
VWest Elm
p1112
sbsI130
(iasset
Asset
p1113
(dp1114
g3
I999
sg4
(dp1115
g6
I8
sg7
I10
sg8
F0.0625
ssg9
VART DECO
p1116
sg11
g236
sg13
VExpressionist Special Order Rug
p1117
sg15
g411
sg17
VLiving Room
p1118
sg19
g670
sg21
V5bacbf16f120bf1cd05158e5
p1119
sg23
VWest Elm
p1120
sbsI131
(iasset
Asset
p1121
(dp1122
g3
I44
sg4
(dp1123
g6
F1.75
sg7
I0
sg8
I1
ssg9
VIndian Contemporary
p1124
sg11
g236
sg13
VDeco Tile Pillow Covers
p1125
sg15
g238
sg17
VMaster Bedroom
p1126
sg19
g687
sg21
V5bacbe9ff120bf1cd05158e0
p1127
sg23
VWest Elm
p1128
sbsI132
(iasset
Asset
p1129
(dp1130
g3
I1399
sg4
(dp1131
g6
I8
sg7
I10
sg8
F0.0625
ssg9
VART DECO
p1132
sg11
g236
sg13
VAbstract Lines Wool Rug
p1133
sg15
g411
sg17
VGuest Room
p1134
sg19
g670
sg21
V5bacbde3f120bf1cd05158dc
p1135
sg23
VWest Elm
p1136
sbsI133
(iasset
Asset
p1137
(dp1138
g3
I699
sg4
(dp1139
g6
I8
sg7
I10
sg8
F0.0625
ssg9
VBohemian
p1140
sg11
g236
sg13
VJanus Ikat Rug
p1141
sg15
g411
sg17
VLiving Room
p1142
sg19
g670
sg21
V5bacbd4df120bf1cd05158db
p1143
sg23
VWest Elm
p1144
sbsI134
(iasset
Asset
p1145
(dp1146
g3
I39
sg4
(dp1147
g6
F1.5
sg7
F0.33
sg8
F1.5
ssg9
VModern
p1148
sg11
g236
sg13
VOasis Brocade Pillow Cover
p1149
sg15
g238
sg17
VMaster Bedroom
p1150
sg19
g687
sg21
V5bacbd2df120bf1cd05158da
p1151
sg23
VWest Elm
p1152
sbsI135
(iasset
Asset
p1153
(dp1154
g3
I899
sg4
(dp1155
g6
I8
sg7
I10
sg8
F0.0625
ssg9
VScandinavian
p1156
sg11
g236
sg13
VBaby Souk Wool Nursery Rug
p1157
sg15
g411
sg17
VKids Room
p1158
sg19
g670
sg21
V5bacbbf1f120bf1cd05158d9
p1159
sg23
VWest Elm
p1160
sbsI136
(iasset
Asset
p1161
(dp1162
g3
I699
sg4
(dp1163
g6
I8
sg7
I10
sg8
F0.0625
ssg9
VModern
p1164
sg11
g236
sg13
VLore Rug
p1165
sg15
g411
sg17
VLiving Room
p1166
sg19
g670
sg21
V5bacbb44f120bf1cd05158d8
p1167
sg23
VWest Elm
p1168
sbsI137
(iasset
Asset
p1169
(dp1170
g3
I39
sg4
(dp1171
g6
F1.5
sg7
F0.33
sg8
F1.5
ssg9
VTRANSITIONAL
p1172
sg11
g236
sg13
VPinwheel Pillow Cover
p1173
sg15
g238
sg17
VGuest Room
p1174
sg19
g687
sg21
V5bacbabdf120bf1cd05158d7
p1175
sg23
VWest Elm
p1176
sbsI138
(iasset
Asset
p1177
(dp1178
g3
I799
sg4
(dp1179
g6
I8
sg7
I10
sg8
F0.0625
ssg9
VScandinavian
p1180
sg11
g236
sg13
VAerial Rug
p1181
sg15
g411
sg17
VLiving Room
p1182
sg19
g670
sg21
V5bacba82f120bf1cd05158d6
p1183
sg23
VWest Elm
p1184
sbsI139
(iasset
Asset
p1185
(dp1186
g3
I599
sg4
(dp1187
g6
I8
sg7
I10
sg8
F0.0625
ssg9
VScandinavian
p1188
sg11
g236
sg13
VIkat Mix Indoor Outdoor Rug
p1189
sg15
g411
sg17
VLiving Room
p1190
sg19
g670
sg21
V5bacb9bff120bf1cd05158d5
p1191
sg23
VWest Elm
p1192
sbsI140
(iasset
Asset
p1193
(dp1194
g3
I799
sg4
(dp1195
g6
I8
sg7
I10
sg8
F0.0625
ssg9
VECCENTRIC / ECLECTIC
p1196
sg11
g236
sg13
VDeco Facade Rug
p1197
sg15
g411
sg17
VLiving Room
p1198
sg19
g670
sg21
V5bacb927f120bf1cd05158d4
p1199
sg23
VWest Elm
p1200
sbsI141
(iasset
Asset
p1201
(dp1202
g3
I39
sg4
(dp1203
g6
F1.75
sg7
F0.33
sg8
I1
ssg9
VIndian Contemporary
p1204
sg11
g236
sg13
VEmbellished Brocade
p1205
sg15
g238
sg17
VLiving Room
p1206
sg19
g687
sg21
V5bacb8a4f120bf1cd05158d3
p1207
sg23
VWest Elm
p1208
sbsI142
(iasset
Asset
p1209
(dp1210
g3
I999
sg4
(dp1211
g6
I8
sg7
I10
sg8
F0.0625
ssg9
VModern
p1212
sg11
g236
sg13
VLucent Rug-Blue Teal
p1213
sg15
g411
sg17
VLiving Room
p1214
sg19
g670
sg21
V5bacb877f120bf1cd05158d2
p1215
sg23
VWest Elm
p1216
sbsI143
(iasset
Asset
p1217
(dp1218
g3
I599
sg4
(dp1219
g6
I8
sg7
I10
sg8
F0.0625
ssg9
VScandinavian
p1220
sg11
g236
sg13
VBrushed Palette Rug
p1221
sg15
g411
sg17
VLiving Room
p1222
sg19
g670
sg21
V5bacb7c9f120bf1cd05158d1
p1223
sg23
VWest Elm
p1224
sbsI144
(iasset
Asset
p1225
(dp1226
g3
I699
sg4
(dp1227
g6
I8
sg7
I10
sg8
F0.0625
ssg9
VTRANSITIONAL
p1228
sg11
g236
sg13
VMontane Rug
p1229
sg15
g411
sg17
VLiving Room
p1230
sg19
g670
sg21
V5bacb71df120bf1cd05158d0
p1231
sg23
VWest Elm
p1232
sbsI145
(iasset
Asset
p1233
(dp1234
g3
I49
sg4
(dp1235
g6
F1.33
sg7
F0.33
sg8
F1.33
ssg9
VModern
p1236
sg11
g236
sg13
VBrooch Pillow Cover
p1237
sg15
g238
sg17
VMaster Bedroom
p1238
sg19
g687
sg21
V5bacb6ebf120bf1cd05158cf
p1239
sg23
VWest Elm
p1240
sbsI146
(iasset
Asset
p1241
(dp1242
g3
I999
sg4
(dp1243
g6
I8
sg7
I10
sg8
F0.0625
ssg9
VModern
p1244
sg11
g236
sg13
VLucent Rug-Pink Grapefruit
p1245
sg15
g411
sg17
VLiving Room
p1246
sg19
g670
sg21
V5bacb5f6f120bf1cd05158ce
p1247
sg23
VWest Elm
p1248
sbsI147
(iasset
Asset
p1249
(dp1250
g3
I1199
sg4
(dp1251
g6
I8
sg7
I10
sg8
F0.0625
ssg9
VScandinavian
p1252
sg11
g236
sg13
VFlame Rug
p1253
sg15
g411
sg17
VLiving Room
p1254
sg19
g670
sg21
V5bacb4ccf120bf1cd05158cd
p1255
sg23
VWest Elm
p1256
sbsI148
(iasset
Asset
p1257
(dp1258
g3
I699
sg4
(dp1259
g6
I8
sg7
I10
sg8
F0.0625
ssg9
VCOASTAL CASUAL
p1260
sg11
g236
sg13
VCampo Rug
p1261
sg15
g411
sg17
VLiving Room
p1262
sg19
g670
sg21
V5bacb3d3f120bf1cd05158cc
p1263
sg23
VWest Elm
p1264
sbsI149
(iasset
Asset
p1265
(dp1266
g3
I24
sg4
(dp1267
g6
F2.16
sg7
F0.33
sg8
F1.16
ssg9
VModern
p1268
sg11
g236
sg13
VDistressed Rug Pillow Covers
p1269
sg15
g238
sg17
VMaster Bedroom
p1270
sg19
g687
sg21
V5bacb27af120bf1cd05158cb
p1271
sg23
VWest Elm
p1272
sbsI150
(iasset
Asset
p1273
(dp1274
g3
I399
sg4
(dp1275
g6
I8
sg7
I10
sg8
F0.0625
ssg9
VART DECO
p1276
sg11
g236
sg13
VMixed Stripes Cotton Dhurrie-Multi
p1277
sg15
g411
sg17
VLiving Room
p1278
sg19
g670
sg21
V5bacb279f120bf1cd05158ca
p1279
sg23
VWest Elm
p1280
sbsI151
(iasset
Asset
p1281
(dp1282
g3
I899
sg4
(dp1283
g6
I8
sg7
I10
sg8
F0.0625
ssg9
VScandinavian
p1284
sg11
g236
sg13
VRoyal Grid Shag Rug-Platinum
p1285
sg15
g411
sg17
VLiving Room
p1286
sg19
g670
sg21
V5bacb15df120bf1cd05158c9
p1287
sg23
VWest Elm
p1288
sbsI152
(iasset
Asset
p1289
(dp1290
g3
I39
sg4
(dp1291
g6
I1
sg7
F0.33
sg8
F1.75
ssg9
VModern
p1292
sg11
g236
sg13
VWater Garden Pillow Cover
p1293
sg15
g238
sg17
VLiving Room
p1294
sg19
g687
sg21
V5bacb063f120bf1cd05158c8
p1295
sg23
VWest Elm
p1296
sbsI153
(iasset
Asset
p1297
(dp1298
g3
I799
sg4
(dp1299
g6
I8
sg7
I10
sg8
F0.0625
ssg9
VScandinavian
p1300
sg11
g236
sg13
VStone Tile Rug
p1301
sg15
g411
sg17
VLiving Room
p1302
sg19
g670
sg21
V5bacb03ff120bf1cd05158c7
p1303
sg23
VWest Elm
p1304
sbsI154
(iasset
Asset
p1305
(dp1306
g3
I599
sg4
(dp1307
g6
I8
sg7
I10
sg8
F0.0625
ssg9
VModern
p1308
sg11
g236
sg13
VDistressed Foliage Rug-Pewter
p1309
sg15
g411
sg17
VLiving Room
p1310
sg19
g670
sg21
V5bacade8f120bf1cd05158c6
p1311
sg23
VWest Elm
p1312
sbsI155
(iasset
Asset
p1313
(dp1314
g3
I1199
sg4
(dp1315
g6
I8
sg7
I10
sg8
F0.0625
ssg9
VCOASTAL CASUAL
p1316
sg11
g236
sg13
VDistressed Arabesque Wool Rug-Midnight
p1317
sg15
g411
sg17
VLiving Room
p1318
sg19
g670
sg21
V5bacac9df120bf1cd05158c5
p1319
sg23
VWest Elm
p1320
sbsI156
(iasset
Asset
p1321
(dp1322
g3
I499
sg4
(dp1323
g6
F3.16
sg7
F3.16
sg8
I3
ssg9
VCONTEMPORARY
p1324
sg11
g57
sg13
VLight Rods LED Chandelier
p1325
sg15
g59
sg17
VLiving Room
p1326
sg19
g61
sg21
V5bacabcaf120bf1cd05158c4
p1327
sg23
VWest Elm
p1328
sbsI157
(iasset
Asset
p1329
(dp1330
g3
I599
sg4
(dp1331
g6
I8
sg7
I10
sg8
F0.0625
ssg9
VCOASTAL CASUAL
p1332
sg11
g236
sg13
VSummit Indoor/Outdoor Rug
p1333
sg15
g411
sg17
VLiving Room
p1334
sg19
g670
sg21
V5baca96ff120bf1cd05158c3
p1335
sg23
VWest Elm
p1336
sbsI158
(iasset
Asset
p1337
(dp1338
g3
I139
sg4
(dp1339
g6
F1.16
sg7
F1.16
sg8
I2
ssg9
VTRANSITIONAL
p1340
sg11
g57
sg13
VSphere + Stem Pendant
p1341
sg15
g59
sg17
VMaster Bedroom
p1342
sg19
g787
sg21
V5baca8a5f120bf1cd05158c2
p1343
sg23
VWest Elm
p1344
sbsI159
(iasset
Asset
p1345
(dp1346
g3
I139
sg4
(dp1347
g6
F1.16
sg7
F1.16
sg8
I2
ssg9
VTRANSITIONAL
p1348
sg11
g57
sg13
VSphere + Stem Pendant
p1349
sg15
g59
sg17
VMaster Bedroom
p1350
sg19
g787
sg21
V5baca8a4f120bf1cd05158c1
p1351
sg23
VWest Elm
p1352
sbsI160
(iasset
Asset
p1353
(dp1354
g3
I209
sg4
(dp1355
g6
I0
sg7
F1.22
sg8
F5.16
ssg9
VCONTEMPORARY
p1356
sg11
g57
sg13
VSphere + Stem Floor Lamp
p1357
sg15
g86
sg17
VLiving Room
p1358
sg19
g88
sg21
V5baca558f120bf1cd05158c0
p1359
sg23
VWest Elm
p1360
sbsI161
(iasset
Asset
p1361
(dp1362
g3
I599
sg4
(dp1363
g6
I8
sg7
I10
sg8
F0.0625
ssg9
VCOASTAL CASUAL
p1364
sg11
g236
sg13
VVerve Rug-Midnight
p1365
sg15
g411
sg17
VLiving Room
p1366
sg19
g670
sg21
V5baca54df120bf1cd05158bf
p1367
sg23
VWest Elm
p1368
sbsI162
(iasset
Asset
p1369
(dp1370
g3
I599
sg4
(dp1371
g6
I8
sg7
I10
sg8
F0.0625
ssg9
VCOASTAL CASUAL
p1372
sg11
g236
sg13
VSun-Kissed Landscape Rug-Light Pool
p1373
sg15
g411
sg17
VLiving Room
p1374
sg19
g670
sg21
V5baca279f120bf1cd05158be
p1375
sg23
VWest Elm
p1376
sbsI163
(iasset
Asset
p1377
(dp1378
g3
I799
sg4
(dp1379
g6
F2.58
sg7
F2.58
sg8
I3
ssg9
VTRANSITIONAL
p1380
sg11
g57
sg13
VPelle Chandelier
p1381
sg15
g59
sg17
VLiving Room
p1382
sg19
g61
sg21
V5baca16ef120bf1cd05158bd
p1383
sg23
VWest Elm
p1384
sbsI164
(iasset
Asset
p1385
(dp1386
g3
I999
sg4
(dp1387
g6
I8
sg7
I10
sg8
F0.0625
ssg9
VTRANSITIONAL
p1388
sg11
g236
sg13
VSunset Lake Rug
p1389
sg15
g411
sg17
VLiving Room
p1390
sg19
g670
sg21
V5baca11ff120bf1cd05158bc
p1391
sg23
VWest Elm
p1392
sbsI165
(iasset
Asset
p1393
(dp1394
g3
I999
sg4
(dp1395
g6
I8
sg7
I10
sg8
F0.0625
ssg9
VScandinavian
p1396
sg11
g236
sg13
VRani Rug-Midnight Navy
p1397
sg15
g411
sg17
VLiving Room
p1398
sg19
g670
sg21
V5bac9f75f120bf1cd05158bb
p1399
sg23
VWest Elm
p1400
sbsI166
(iasset
Asset
p1401
(dp1402
g3
I349
sg4
(dp1403
g6
I6
sg7
I6
sg8
F0.0625
ssg9
VCONTEMPORARY
p1404
sg11
g236
sg13
VWatermark Rug - Round
p1405
sg15
g411
sg17
VLiving Room
p1406
sg19
g670
sg21
V5bac9c7ff120bf1cd05158ba
p1407
sg23
VWest Elm
p1408
sbsI167
(iasset
Asset
p1409
(dp1410
g3
I599
sg4
(dp1411
g6
F3.18
sg7
F3.18
sg8
F3.33
ssg9
VCONTEMPORARY
p1412
sg11
g57
sg13
VChampignon Chandelier
p1413
sg15
g59
sg17
VLiving Room
p1414
sg19
g61
sg21
V5bac9b24f120bf1cd05158b9
p1415
sg23
VWest Elm
p1416
sbsI168
(iasset
Asset
p1417
(dp1418
g3
I419
sg4
(dp1419
g6
I3
sg7
I3
sg8
F1.45
ssg9
VModern
p1420
sg11
g57
sg13
VSphere + Stem Chandelier
p1421
sg15
g59
sg17
VLiving Room
p1422
sg19
g61
sg21
V5bac9aa0f120bf1cd05158b8
p1423
sg23
VWest Elm
p1424
sbsI169
(iasset
Asset
p1425
(dp1426
g3
I349
sg4
(dp1427
g6
I6
sg7
I6
sg8
F0.0625
ssg9
VModern
p1428
sg11
g236
sg13
VDistressed Rococo Wool Rug - Round
p1429
sg15
g411
sg17
VLiving Room
p1430
sg19
g670
sg21
V5bac994ef120bf1cd05158b7
p1431
sg23
VWest Elm
p1432
sbsI170
(iasset
Asset
p1433
(dp1434
g3
F149.99
sg4
(dp1435
g6
F1.75
sg7
F2.25
sg8
F3.41
ssg9
VHollywood Regency
p1436
sg11
g12
sg13
VChicago Parsons Chair- Dark Gray Fabric
p1437
sg15
g121
sg17
VMaster Bedroom
p1438
sg19
g123
sg21
V5baa1c46f120bf1cd0515891
p1439
sg23
VWayfair
p1440
sbsI171
(iasset
Asset
p1441
(dp1442
g3
F299.99
sg4
(dp1443
g6
F1.75
sg7
F2.25
sg8
F3.41
ssg9
VTRANSITIONAL
p1444
sg11
g12
sg13
VChicago Parsons Chair
p1445
sg15
g121
sg17
VLiving Room
p1446
sg19
g123
sg21
V5baa1b4ff120bf1cd051588f
p1447
sg23
VWayfair
p1448
sbsI172
(iasset
Asset
p1449
(dp1450
g3
F193.99
sg4
(dp1451
g6
F1.91
sg7
F2.33
sg8
F2.91
ssg9
VCOASTAL CASUAL
p1452
sg11
g12
sg13
VTeal Geometric-Trellis Swoop Slipper Chair
p1453
sg15
g121
sg17
VLiving Room
p1454
sg19
g123
sg21
V5baa1313f120bf1cd051588e
p1455
sg23
VWayfair
p1456
sbsI173
(iasset
Asset
p1457
(dp1458
g3
F193.99
sg4
(dp1459
g6
F2.91
sg7
F2.33
sg8
F2.83
ssg9
VECCENTRIC / ECLECTIC
p1460
sg11
g12
sg13
VCoal Gray Ikat-Trellis Swoop Slipper Chair
p1461
sg15
g121
sg17
VLiving Room
p1462
sg19
g123
sg21
V5baa11a0f120bf1cd051588d
p1463
sg23
VWayfair
p1464
sbsI174
(iasset
Asset
p1465
(dp1466
g3
I145
sg4
(dp1467
g6
F0.83
sg7
F0.83
sg8
F5.58
ssg9
VCONTEMPORARY
p1468
sg11
g57
sg13
VHugo Floor Lamp
p1469
sg15
g86
sg17
VLiving Room
p1470
sg19
g88
sg21
V5baa10ecf120bf1cd051588c
p1471
sg23
VWayfair
p1472
sbsI175
(iasset
Asset
p1473
(dp1474
g3
F193.99
sg4
(dp1475
g6
F1.91
sg7
F2.33
sg8
F2.83
ssg9
VECCENTRIC / ECLECTIC
p1476
sg11
g12
sg13
VGreen White Geometric-Trellis Swoop Slipper Chair
p1477
sg15
g121
sg17
VMaster Bedroom
p1478
sg19
g123
sg21
V5baa0fb2f120bf1cd051588b
p1479
sg23
VWayfair
p1480
sbsI176
(iasset
Asset
p1481
(dp1482
g3
I95
sg4
(dp1483
g6
F2.5
sg7
F2.5
sg8
F4.25
ssg9
VIndustrial
p1484
sg11
g57
sg13
VDormont Floor Lamp
p1485
sg15
g86
sg17
VLiving Room
p1486
sg19
g88
sg21
V5baa0f2cf120bf1cd051588a
p1487
sg23
VWayfair
p1488
sbsI177
(iasset
Asset
p1489
(dp1490
g3
F138.99
sg4
(dp1491
g6
F2.08
sg7
F2.31
sg8
F2.75
ssg9
VECCENTRIC / ECLECTIC
p1492
sg11
g12
sg13
VViverette Swoop Armchair
p1493
sg15
g121
sg17
VLiving Room
p1494
sg19
g123
sg21
V5baa0e51f120bf1cd0515889
p1495
sg23
VWayfair
p1496
sbsI178
(iasset
Asset
p1497
(dp1498
g3
F157.99
sg4
(dp1499
g6
F2.08
sg7
F2.31
sg8
F2.77
ssg9
VSHABBY-CHIC
p1500
sg11
g12
sg13
VCrainville Swoop Armchair
p1501
sg15
g121
sg17
VLiving Room
p1502
sg19
g123
sg21
V5baa0d4df120bf1cd0515888
p1503
sg23
VWayfair
p1504
sbsI179
(iasset
Asset
p1505
(dp1506
g3
I69
sg4
(dp1507
g6
F1.16
sg7
F1.16
sg8
F4.91
ssg9
VIndian Contemporary
p1508
sg11
g57
sg13
VBridgers Floor Lmap
p1509
sg15
g86
sg17
VLiving Room
p1510
sg19
g88
sg21
V5baa0b22f120bf1cd0515887
p1511
sg23
VWayfair
p1512
sbsI180
(iasset
Asset
p1513
(dp1514
g3
F141.99
sg4
(dp1515
g6
F2.08
sg7
F2.31
sg8
F2.77
ssg9
VHollywood Regency
p1516
sg11
g12
sg13
VLuxton Swoop Armchair
p1517
sg15
g121
sg17
VMaster Bedroom
p1518
sg19
g123
sg21
V5baa0299f120bf1cd0515886
p1519
sg23
VWayfair
p1520
sbsI181
(iasset
Asset
p1521
(dp1522
g3
F187.99
sg4
(dp1523
g6
F1.8
sg7
F2.49
sg8
F2.71
ssg9
VCOASTAL CASUAL
p1524
sg11
g12
sg13
VReedsport Slipper Chair
p1525
sg15
g121
sg17
VLiving Room
p1526
sg19
g123
sg21
V5ba9fd03f120bf1cd0515885
p1527
sg23
VWayfair
p1528
sbsI182
(iasset
Asset
p1529
(dp1530
g3
I303
sg4
(dp1531
g6
I2
sg7
F1.5
sg8
F4.41
ssg9
VMid Century
p1532
sg11
g12
sg13
VCastagnier Chest
p1533
sg15
g48
sg17
VLiving Room
p1534
sg19
g50
sg21
V5ba9f918f120bf1cd0515884
p1535
sg23
VWayfair
p1536
sbsI183
(iasset
Asset
p1537
(dp1538
g3
I450
sg4
(dp1539
g6
F3.5
sg7
F1.5
sg8
F3.16
ssg9
VCONTEMPORARY
p1540
sg11
g12
sg13
VLisle Drawer Chest
p1541
sg15
g48
sg17
VLiving Room
p1542
sg19
g50
sg21
V5ba9f4b3f120bf1cd0515883
p1543
sg23
VWayfair
p1544
sbsI184
(iasset
Asset
p1545
(dp1546
g3
F132.99
sg4
(dp1547
g6
F1.6
sg7
F1.08
sg8
F2.23
ssg9
VHollywood Regency
p1548
sg11
g12
sg13
VPhilipston 2 Drawer Nightstand-Hot Red
p1549
sg15
g30
sg17
VKids Room
p1550
sg19
g32
sg21
V5ba9f3fdf120bf1cd0515882
p1551
sg23
VWayfair
p1552
sbsI185
(iasset
Asset
p1553
(dp1554
g3
F132.99
sg4
(dp1555
g6
F1.6
sg7
F1.08
sg8
F2.23
ssg9
VCOASTAL CASUAL
p1556
sg11
g12
sg13
VPhilipston 2 Drawer Nightstand-French Gray
p1557
sg15
g30
sg17
VMaster Bedroom
p1558
sg19
g32
sg21
V5ba9f306f120bf1cd0515881
p1559
sg23
VWayfair
p1560
sbsI186
(iasset
Asset
p1561
(dp1562
g3
F132.99
sg4
(dp1563
g6
F1.6
sg7
F1.08
sg8
F2.23
ssg9
VCOASTAL CASUAL
p1564
sg11
g12
sg13
VPhilipston 2 Drawer Nightstand-Barn Blue
p1565
sg15
g30
sg17
VMaster Bedroom
p1566
sg19
g32
sg21
V5ba9f242f120bf1cd0515880
p1567
sg23
VWayfair
p1568
sbsI187
(iasset
Asset
p1569
(dp1570
g3
I450
sg4
(dp1571
g6
F3.5
sg7
F1.5
sg8
F3.16
ssg9
VTRANSITIONAL
p1572
sg11
g12
sg13
VLisle Media Chest
p1573
sg15
g48
sg17
VLiving Room
p1574
sg19
g50
sg21
V5ba9f1c8f120bf1cd051587f
p1575
sg23
VWayfair
p1576
sbsI188
(iasset
Asset
p1577
(dp1578
g3
F132.99
sg4
(dp1579
g6
F1.6
sg7
F1.08
sg8
F2.23
ssg9
VScandinavian
p1580
sg11
g12
sg13
VPhilipston 2 Drawer Nightstand-Barley
p1581
sg15
g30
sg17
VMaster Bedroom
p1582
sg19
g32
sg21
V5ba9f142f120bf1cd051587e
p1583
sg23
VWayfair
p1584
sbsI189
(iasset
Asset
p1585
(dp1586
g3
I640
sg4
(dp1587
g6
I4
sg7
F1.43
sg8
F3.33
ssg9
VCONTEMPORARY
p1588
sg11
g12
sg13
VDella Double Dresser
p1589
sg15
g48
sg17
VMaster Bedroom
p1590
sg19
g50
sg21
V5ba9f000f120bf1cd051587d
p1591
sg23
VWayfair
p1592
sbsI190
(iasset
Asset
p1593
(dp1594
g3
F132.99
sg4
(dp1595
g6
F1.5
sg7
F1.08
sg8
F2.23
ssg9
VScandinavian
p1596
sg11
g12
sg13
VPhilipston 2 Drawer Nightstand-Antique White
p1597
sg15
g30
sg17
VGuest Room
p1598
sg19
g32
sg21
V5ba9efd7f120bf1cd051587c
p1599
sg23
VWayfair
p1600
sbsI191
(iasset
Asset
p1601
(dp1602
g3
F369.99
sg4
(dp1603
g6
F2.61
sg7
F1.667
sg8
F2.5
ssg9
VModern
p1604
sg11
g12
sg13
VDobson Nightstand-Fog
p1605
sg15
g30
sg17
VMaster Bedroom
p1606
sg19
g32
sg21
V5ba9ee87f120bf1cd051587b
p1607
sg23
VWayfair
p1608
sbsI192
(iasset
Asset
p1609
(dp1610
g3
I640
sg4
(dp1611
g6
I4
sg7
F1.18
sg8
F3.33
ssg9
VCONTEMPORARY
p1612
sg11
g12
sg13
VDella Dresser
p1613
sg15
g48
sg17
VMaster Bedroom
p1614
sg19
g50
sg21
V5ba9edeef120bf1cd051587a
p1615
sg23
VWayfair
p1616
sbsI193
(iasset
Asset
p1617
(dp1618
g3
F369.99
sg4
(dp1619
g6
F2.61
sg7
F1.667
sg8
F2.5
ssg9
VCOASTAL CASUAL
p1620
sg11
g12
sg13
VDobson Nightstand
p1621
sg15
g30
sg17
VMaster Bedroom
p1622
sg19
g32
sg21
V5ba9edbdf120bf1cd0515879
p1623
sg23
VWayfair
p1624
sbsI194
(iasset
Asset
p1625
(dp1626
g3
F409.99
sg4
(dp1627
g6
F2.41
sg7
F1.41
sg8
F2.46
ssg9
VTraditional
p1628
sg11
g12
sg13
VRosehill 3 Drawer Bachelor's Nightstand-Black
p1629
sg15
g30
sg17
VMaster Bedroom
p1630
sg19
g32
sg21
V5ba9ec58f120bf1cd0515878
p1631
sg23
VWayfair
p1632
sbsI195
(iasset
Asset
p1633
(dp1634
g3
I670
sg4
(dp1635
g6
F2.91
sg7
F1.66
sg8
F4.02
ssg9
VTRANSITIONAL
p1636
sg11
g12
sg13
VEnrico Chest
p1637
sg15
g48
sg17
VMaster Bedroom
p1638
sg19
g50
sg21
V5ba9ec3af120bf1cd0515877
p1639
sg23
VWayfair
p1640
sbsI196
(iasset
Asset
p1641
(dp1642
g3
F345.99
sg4
(dp1643
g6
F2.41
sg7
F1.41
sg8
F2.46
ssg9
VTraditional
p1644
sg11
g12
sg13
VRosehill 3 Drawer Bachelor's Nightstand
p1645
sg15
g30
sg17
VMaster Bedroom
p1646
sg19
g32
sg21
V5ba9eb11f120bf1cd0515876
p1647
sg23
VWayfair
p1648
sbsI197
(iasset
Asset
p1649
(dp1650
g3
I538
sg4
(dp1651
g6
F4.25
sg7
F1.66
sg8
I3
ssg9
VTRANSITIONAL
p1652
sg11
g12
sg13
VDobson Drawer Dresser
p1653
sg15
g48
sg17
VLiving Room
p1654
sg19
g50
sg21
V5ba9eafcf120bf1cd0515875
p1655
sg23
VWayfair
p1656
sbsI198
(iasset
Asset
p1657
(dp1658
g3
F309.99
sg4
(dp1659
g6
F2.41
sg7
F1.33
sg8
F3.54
ssg9
VTraditional
p1660
sg11
g12
sg13
VEllis 3 Drawer Bachelor's Chest-Cappuccino
p1661
sg15
g30
sg17
VGuest Room
p1662
sg19
g32
sg21
V5ba9e1b4f120bf1cd0515874
p1663
sg23
VWayfair
p1664
sbsI199
(iasset
Asset
p1665
(dp1666
g3
I629
sg4
(dp1667
g6
F5.5
sg7
F1.5
sg8
F3.41
ssg9
VIndustrial
p1668
sg11
g12
sg13
VHilton Double Dresser
p1669
sg15
g48
sg17
VMaster Bedroom
p1670
sg19
g50
sg21
V5ba9e0fcf120bf1cd0515873
p1671
sg23
VWayfair
p1672
sbsI200
(iasset
Asset
p1673
(dp1674
g3
F337.99
sg4
(dp1675
g6
F2.41
sg7
F1.375
sg8
F2.54
ssg9
VModern
p1676
sg11
g12
sg13
VEllis 3 Drawer Bachelor's Chest
p1677
sg15
g30
sg17
VMaster Bedroom
p1678
sg19
g32
sg21
V5ba9e0dcf120bf1cd0515872
p1679
sg23
VWayfair
p1680
sbsI201
(iasset
Asset
p1681
(dp1682
g3
F160.99
sg4
(dp1683
g6
I2
sg7
F1.33
sg8
I2
ssg9
VTRANSITIONAL
p1684
sg11
g12
sg13
VJuno 2 Drawer Nightstand
p1685
sg15
g30
sg17
VGuest Room
p1686
sg19
g32
sg21
V5ba9df68f120bf1cd0515871
p1687
sg23
VWayfair
p1688
sbsI202
(iasset
Asset
p1689
(dp1690
g3
I739
sg4
(dp1691
g6
F5.1
sg7
F1.54
sg8
F3.35
ssg9
VScandinavian
p1692
sg11
g12
sg13
VHorton Drawer
p1693
sg15
g48
sg17
VMaster Bedroom
p1694
sg19
g50
sg21
V5ba9de9df120bf1cd0515870
p1695
sg23
VWayfair
p1696
sbsI203
(iasset
Asset
p1697
(dp1698
g3
F299.99
sg4
(dp1699
g6
F2.58
sg7
F1.33
sg8
F2.5
ssg9
VCOASTAL CASUAL
p1700
sg11
g12
sg13
VKennison 3 Drawer Nightstand-Antique Gray
p1701
sg15
g30
sg17
VMaster Bedroom
p1702
sg19
g32
sg21
V5ba9dd74f120bf1cd051586f
p1703
sg23
VWayfair
p1704
sbsI204
(iasset
Asset
p1705
(dp1706
g3
F302.99
sg4
(dp1707
g6
F2.58
sg7
F1.33
sg8
F2.5
ssg9
VTraditional
p1708
sg11
g12
sg13
VKennison 3 Drawer Nightstand-Tobacco
p1709
sg15
g30
sg17
VGuest Room
p1710
sg19
g32
sg21
V5ba9dc62f120bf1cd051586e
p1711
sg23
VWayfair
p1712
sbsI205
(iasset
Asset
p1713
(dp1714
g3
I650
sg4
(dp1715
g6
F4.5
sg7
F1.5
sg8
F3.33
ssg9
VIndian Contemporary
p1716
sg11
g12
sg13
VTroxell Dresser
p1717
sg15
g48
sg17
VMaster Bedroom
p1718
sg19
g50
sg21
V5ba9db62f120bf1cd051586d
p1719
sg23
VWayfair
p1720
sbsI206
(iasset
Asset
p1721
(dp1722
g3
F369.99
sg4
(dp1723
g6
F2.5
sg7
F1.41
sg8
F2.5
ssg9
VTraditional
p1724
sg11
g12
sg13
VBlenheim 2 Drawer Nightstand
p1725
sg15
g30
sg17
VMaster Bedroom
p1726
sg19
g32
sg21
V5ba9db2ef120bf1cd051586c
p1727
sg23
VWayfair
p1728
sbsI207
(iasset
Asset
p1729
(dp1730
g3
F187.99
sg4
(dp1731
g6
F2.21
sg7
F1.62
sg8
F2.14
ssg9
VTRANSITIONAL
p1732
sg11
g12
sg13
VPinellas 1 Drawer Nightstand-Curado Cherry
p1733
sg15
g30
sg17
VMaster Bedroom
p1734
sg19
g32
sg21
V5ba9d926f120bf1cd051586b
p1735
sg23
VWayfair
p1736
sbsI208
(iasset
Asset
p1737
(dp1738
g3
F166.99
sg4
(dp1739
g6
F2.21
sg7
F1.62
sg8
F2.14
ssg9
VScandinavian
p1740
sg11
g12
sg13
VPinellas 1 Drawer Nightstand-Antiqued White
p1741
sg15
g30
sg17
VMaster Bedroom
p1742
sg19
g32
sg21
V5ba9d83bf120bf1cd051586a
p1743
sg23
VWayfair
p1744
sbsI209
(iasset
Asset
p1745
(dp1746
g3
F166.99
sg4
(dp1747
g6
F2.21
sg7
F1.62
sg8
F2.14
ssg9
VMid Century
p1748
sg11
g12
sg13
VPinellas 1 Drawer Nightstand-Antiqued Black
p1749
sg15
g30
sg17
VMaster Bedroom
p1750
sg19
g78
sg21
V5ba9d743f120bf1cd0515869
p1751
sg23
VWayfair
p1752
sbsI210
(iasset
Asset
p1753
(dp1754
g3
I730
sg4
(dp1755
g6
F4.83
sg7
F0.08
sg8
F2.83
ssg9
VIndian Contemporary
p1756
sg11
g12
sg13
VCoalcliff Drawer Chest
p1757
sg15
g48
sg17
VMaster Bedroom
p1758
sg19
g50
sg21
V5ba9d45df120bf1cd0515868
p1759
sg23
VWayfair
p1760
sbsI211
(iasset
Asset
p1761
(dp1762
g3
F166.99
sg4
(dp1763
g6
F2.21
sg7
F1.62
sg8
F2.14
ssg9
VScandinavian
p1764
sg11
g12
sg13
VPinellas 1 Drawer Nightstand-Salt Oak
p1765
sg15
g30
sg17
VMaster Bedroom
p1766
sg19
g32
sg21
V5ba9d436f120bf1cd0515867
p1767
sg23
VWayfair
p1768
sbsI212
(iasset
Asset
p1769
(dp1770
g3
F118.99
sg4
(dp1771
g6
F1.33
sg7
F1.33
sg8
F2.41
ssg9
VTRANSITIONAL
p1772
sg11
g12
sg13
VYvelines 1 Drawer Nightstand
p1773
sg15
g30
sg17
VMaster Bedroom
p1774
sg19
g32
sg21
V5ba9d24ef120bf1cd0515866
p1775
sg23
VWayfair
p1776
sbsI213
(iasset
Asset
p1777
(dp1778
g3
I849
sg4
(dp1779
g6
F3.5
sg7
F1.58
sg8
F4.5
ssg9
VIndian Contemporary
p1780
sg11
g12
sg13
VBristol Chest
p1781
sg15
g48
sg17
VLiving Room
p1782
sg19
g50
sg21
V5ba9d1f5f120bf1cd0515865
p1783
sg23
VWayfair
p1784
sbsI214
(iasset
Asset
p1785
(dp1786
g3
F346.99
sg4
(dp1787
g6
F2.08
sg7
F1.5
sg8
F2.25
ssg9
VTraditional
p1788
sg11
g12
sg13
VBridgton 2 Drawer Nightstand-Cinnamon
p1789
sg15
g30
sg17
VMaster Bedroom
p1790
sg19
g32
sg21
V5ba9d148f120bf1cd0515864
p1791
sg23
VWayfair
p1792
sbsI215
(iasset
Asset
p1793
(dp1794
g3
F319.99
sg4
(dp1795
g6
F2.08
sg7
F1.5
sg8
F2.25
ssg9
VTraditional
p1796
sg11
g12
sg13
VBridgton 2 Drawer Nightstand-Cinnamon Brown
p1797
sg15
g30
sg17
VMaster Bedroom
p1798
sg19
g32
sg21
V5ba9cfe9f120bf1cd0515863
p1799
sg23
VWayfair
p1800
sbsI216
(iasset
Asset
p1801
(dp1802
g3
I400
sg4
(dp1803
g6
F2.54
sg7
F1.45
sg8
F3.29
ssg9
VIndian Contemporary
p1804
sg11
g12
sg13
VAstra Drawer Chest
p1805
sg15
g48
sg17
VLiving Room
p1806
sg19
g50
sg21
V5ba9cfdcf120bf1cd0515862
p1807
sg23
VWayfair
p1808
sbsI217
(iasset
Asset
p1809
(dp1810
g3
F434.99
sg4
(dp1811
g6
F1.833
sg7
F1.58
sg8
F2.5
ssg9
VMid Century
p1812
sg11
g12
sg13
VPond Brook Nightstand
p1813
sg15
g30
sg17
VMaster Bedroom
p1814
sg19
g32
sg21
V5ba9cea0f120bf1cd0515861
p1815
sg23
VWayfair
p1816
sbsI218
(iasset
Asset
p1817
(dp1818
g3
I189
sg4
(dp1819
g6
F1.81
sg7
F1.56
sg8
F3.7
ssg9
VCONTEMPORARY
p1820
sg11
g12
sg13
VCleveland Bar Stool
p1821
sg15
g121
sg17
VLiving and Dining Room
p1822
sg19
g462
sg21
V5ba8d777f120bf1cd05157e4
p1823
sg23
VWayfair
p1824
sbsI219
(iasset
Asset
p1825
(dp1826
g3
I224
sg4
(dp1827
g6
F1.91
sg7
F1.91
sg8
F3.29
ssg9
VMINIMALIST
p1828
sg11
g12
sg13
VBelvin Bar Stool
p1829
sg15
g121
sg17
VLiving and Dining Room
p1830
sg19
VBar Stools
p1831
sg21
V5ba8d3f7f120bf1cd05157bf
p1832
sg23
VWayfair
p1833
sbsI220
(iasset
Asset
p1834
(dp1835
g3
I126
sg4
(dp1836
g6
F1.47
sg7
F1.76
sg8
F3.18
ssg9
VMINIMALIST
p1837
sg11
g12
sg13
VCeleste Bar Stool
p1838
sg15
g121
sg17
VLiving and Dining Room
p1839
sg19
g1831
sg21
V5ba8d10cf120bf1cd05157be
p1840
sg23
VWayfair
p1841
sbsI221
(iasset
Asset
p1842
(dp1843
g3
F297.99
sg4
(dp1844
g6
I3
sg7
I3
sg8
F1.667
ssg9
VTRANSITIONAL
p1845
sg11
g12
sg13
VStowe Coffee Table
p1846
sg15
g30
sg17
VLiving Room
p1847
sg19
g140
sg21
V5ba8cc6df120bf1cd05157bd
p1848
sg23
VWayfair
p1849
sbsI222
(iasset
Asset
p1850
(dp1851
g3
I124
sg4
(dp1852
g6
F1.33
sg7
F1.33
sg8
I2
ssg9
VTRANSITIONAL
p1853
sg11
g12
sg13
VBlaney Yellow Stool
p1854
sg15
g121
sg17
VLiving and Dining Room
p1855
sg19
g1831
sg21
V5ba8cbe9f120bf1cd05157bc
p1856
sg23
VWayfair
p1857
sbsI223
(iasset
Asset
p1858
(dp1859
g3
I193
sg4
(dp1860
g6
F1.33
sg7
F1.33
sg8
I2
ssg9
VIndustrial
p1861
sg11
g12
sg13
VBlaney Bar Stool
p1862
sg15
g121
sg17
VLiving and Dining Room
p1863
sg19
g1831
sg21
V5ba8c9ecf120bf1cd05157bb
p1864
sg23
VWayfair
p1865
sbsI224
(iasset
Asset
p1866
(dp1867
g3
F186.99
sg4
(dp1868
g6
I4
sg7
I2
sg8
F1.5
ssg9
VModern
p1869
sg11
g12
sg13
VTheodulus Coffee Table
p1870
sg15
g30
sg17
VLiving Room
p1871
sg19
g140
sg21
V5ba8c98ef120bf1cd05157ba
p1872
sg23
VWayfair
p1873
sbsI225
(iasset
Asset
p1874
(dp1875
g3
I224
sg4
(dp1876
g6
F1.66
sg7
F1.52
sg8
F2.58
ssg9
VIndustrial
p1877
sg11
g12
sg13
VBarraute Bar Stool
p1878
sg15
g121
sg17
VLiving and Dining Room
p1879
sg19
g1831
sg21
V5ba8c7d4f120bf1cd05157b9
p1880
sg23
VWayfair
p1881
sbsI226
(iasset
Asset
p1882
(dp1883
g3
I155
sg4
(dp1884
g6
F1.5
sg7
F1.58
sg8
F3.58
ssg9
VIndian Contemporary
p1885
sg11
g12
sg13
VHeartwood 29 Bar Stool
p1886
sg15
g121
sg17
VDining Room
p1887
sg19
g1831
sg21
V5ba8c309f120bf1cd05157b8
p1888
sg23
VWayfair
p1889
sbsI227
(iasset
Asset
p1890
(dp1891
g3
F214.99
sg4
(dp1892
g6
F2.625
sg7
F2.625
sg8
F1.12
ssg9
VModern
p1893
sg11
g12
sg13
VVivienne Coffee Table
p1894
sg15
g30
sg17
VLiving Room
p1895
sg19
g140
sg21
V5ba8c10ff120bf1cd05157b7
p1896
sg23
VWayfair
p1897
sbsI228
(iasset
Asset
p1898
(dp1899
g3
I133
sg4
(dp1900
g6
F1.5
sg7
F1.58
sg8
F3.16
ssg9
VIndian Contemporary
p1901
sg11
g12
sg13
VHeartwood 24 Bar Stool
p1902
sg15
g121
sg17
VDining Room
p1903
sg19
g1831
sg21
V5ba8beb4f120bf1cd0515787
p1904
sg23
VWayfair
p1905
sbsI229
(iasset
Asset
p1906
(dp1907
g3
I135
sg4
(dp1908
g6
F1.5
sg7
F1.32
sg8
F3.19
ssg9
VCONTEMPORARY
p1909
sg11
g12
sg13
VShen Adjustable Bar Stool
p1910
sg15
g121
sg17
VDining Room
p1911
sg19
g1831
sg21
V5ba8b78cf120bf1cd0515759
p1912
sg23
VWayfair
p1913
sbsI230
(iasset
Asset
p1914
(dp1915
g3
I130
sg4
(dp1916
g6
F1.58
sg7
F1.7
sg8
F2.87
ssg9
VCONTEMPORARY
p1917
sg11
g12
sg13
VGrove City Bar Stool
p1918
sg15
g121
sg17
VLiving and Dining Room
p1919
sg19
g1831
sg21
V5ba8afc5f120bf1cd0515758
p1920
sg23
VWayfair
p1921
sbsI231
(iasset
Asset
p1922
(dp1923
g3
I960
sg4
(dp1924
g6
F7.54
sg7
F3.03
sg8
F2.44
ssg9
VHollywood Regency
p1925
sg11
g12
sg13
VKittrell Sofa
p1926
sg15
g325
sg17
VLiving Room
p1927
sg19
g746
sg21
V5ba8ad79f120bf1cd0515757
p1928
sg23
VWayfair
p1929
sbsI232
(iasset
Asset
p1930
(dp1931
g3
I1350
sg4
(dp1932
g6
F4.75
sg7
F3.5
sg8
I3
ssg9
VTRANSITIONAL
p1933
sg11
g12
sg13
VDurango Landry Leather
p1934
sg15
g325
sg17
VLiving Room
p1935
sg19
g327
sg21
V5ba8a963f120bf1cd0515756
p1936
sg23
VWayfair
p1937
sbsI233
(iasset
Asset
p1938
(dp1939
g3
I1347
sg4
(dp1940
g6
F4.75
sg7
F3.5
sg8
I3
ssg9
VTRANSITIONAL
p1941
sg11
g12
sg13
VLandry Leather
p1942
sg15
g325
sg17
VLiving Room
p1943
sg19
g327
sg21
V5ba8a821f120bf1cd0515755
p1944
sg23
VWayfair
p1945
sbsI234
(iasset
Asset
p1946
(dp1947
g3
F474.99
sg4
(dp1948
g6
I3
sg7
I3
sg8
F1.6
ssg9
VTraditional
p1949
sg11
g12
sg13
VWilhoite Double Lift Top Coffee Table
p1950
sg15
g30
sg17
VLiving Room
p1951
sg19
g140
sg21
V5ba8a6d3f120bf1cd0515754
p1952
sg23
VWayfair
p1953
sbsI235
(iasset
Asset
p1954
(dp1955
g3
F315.99
sg4
(dp1956
g6
F2.25
sg7
F2.25
sg8
F1.6
ssg9
VRUSTIC
p1957
sg11
g12
sg13
VVeropeso 27 Reclaimed Coffee Table
p1958
sg15
g30
sg17
VLiving Room
p1959
sg19
g140
sg21
V5ba8a03ef120bf1cd0515753
p1960
sg23
VWayfair
p1961
sbsI236
(iasset
Asset
p1962
(dp1963
g3
I410
sg4
(dp1964
g6
F2.08
sg7
F2.33
sg8
F3.33
ssg9
VTraditional
p1965
sg11
g12
sg13
VRosemary Settee
p1966
sg15
g325
sg17
VLiving Room
p1967
sg19
g327
sg21
V5ba8a02df120bf1cd0515752
p1968
sg23
VWayfair
p1969
sbsI237
(iasset
Asset
p1970
(dp1971
g3
F183.99
sg4
(dp1972
g6
F2.39
sg7
F1.625
sg8
F1.64
ssg9
VModern
p1973
sg11
g12
sg13
VAsine 2 Piece Coffee Table Set
p1974
sg15
g30
sg17
VLiving Room
p1975
sg19
g140
sg21
V5ba89de7f120bf1cd0515751
p1976
sg23
VWayfair
p1977
sbsI238
(iasset
Asset
p1978
(dp1979
g3
I1480
sg4
(dp1980
g6
F7.33
sg7
F3.33
sg8
F3.08
ssg9
VCONTEMPORARY
p1981
sg11
g12
sg13
VChestnut Pratt Sofa
p1982
sg15
g325
sg17
VLiving Room
p1983
sg19
g746
sg21
V5ba89ddff120bf1cd0515750
p1984
sg23
VWayfair
p1985
sbsI239
(iasset
Asset
p1986
(dp1987
g3
I1480
sg4
(dp1988
g6
F7.33
sg7
F3.33
sg8
F3.08
ssg9
VModern
p1989
sg11
g12
sg13
VPratt Leather Sofa
p1990
sg15
g325
sg17
VLiving Room
p1991
sg19
g746
sg21
V5ba89c3bf120bf1cd051574f
p1992
sg23
VWayfair
p1993
sbsI240
(iasset
Asset
p1994
(dp1995
g3
I720
sg4
(dp1996
g6
F6.22
sg7
F2.83
sg8
F2.87
ssg9
VCONTEMPORARY
p1997
sg11
g12
sg13
VRhinebeck Sofa
p1998
sg15
g325
sg17
VLiving Room
p1999
sg19
g746
sg21
V5ba89984f120bf1cd051574e
p2000
sg23
VWayfair
p2001
sbsI241
(iasset
Asset
p2002
(dp2003
g3
F559.99
sg4
(dp2004
g6
I4
sg7
I2
sg8
F1.41
ssg9
VMid Century
p2005
sg11
g12
sg13
VMcpherson Coffee Table
p2006
sg15
g30
sg17
VLiving Room
p2007
sg19
g140
sg21
V5ba89526f120bf1cd051574d
p2008
sg23
VWayfair
p2009
sbsI242
(iasset
Asset
p2010
(dp2011
g3
I372
sg4
(dp2012
g6
F6.23
sg7
F2.85
sg8
F2.65
ssg9
VModern
p2013
sg11
g12
sg13
VSpirit Lake Sleeper
p2014
sg15
g325
sg17
VLiving Room
p2015
sg19
VSofa cum Beds
p2016
sg21
V5ba894d3f120bf1cd051574c
p2017
sg23
VWayfair
p2018
sbsI243
(iasset
Asset
p2019
(dp2020
g3
I0
sg4
(dp2021
g6
I6
sg7
I2
sg8
I10
ssg9
VIndian Contemporary
p2022
sg11
g12
sg13
VGreen White Wardrobe
p2023
sg15
VWardrobes
p2024
sg17
VKids Room
p2025
sg19
V4 Door Wardrobes
p2026
sg21
V5ba88c6ff120bf1cd051574b
p2027
sg23
VHomefuly
p2028
sbsI244
(iasset
Asset
p2029
(dp2030
g3
I740
sg4
(dp2031
g6
F6.62
sg7
F2.79
sg8
F2.62
ssg9
VMINIMALIST
p2032
sg11
g12
sg13
VVera Cruz Sofa
p2033
sg15
g325
sg17
VLiving Room
p2034
sg19
g746
sg21
V5ba88bc7f120bf1cd051574a
p2035
sg23
VWayfair
p2036
sbsI245
(iasset
Asset
p2037
(dp2038
g3
I1450
sg4
(dp2039
g6
F7.33
sg7
F3.08
sg8
F2.83
ssg9
VHollywood Regency
p2040
sg11
g12
sg13
VHawthorn Durango Marine
p2041
sg15
g325
sg17
VLiving Room
p2042
sg19
g746
sg21
V5ba88262f120bf1cd0515749
p2043
sg23
VWayfair
p2044
sbsI246
(iasset
Asset
p2045
(dp2046
g3
I1450
sg4
(dp2047
g6
F7.33
sg7
F3.08
sg8
F2.83
ssg9
VHollywood Regency
p2048
sg11
g12
sg13
VHawthorn Leather Sofa
p2049
sg15
g325
sg17
VLiving Room
p2050
sg19
g746
sg21
V5ba87f6df120bf1cd0515748
p2051
sg23
VWayfair
p2052
sbsI247
(iasset
Asset
p2053
(dp2054
g3
I1025
sg4
(dp2055
g6
F1.08
sg7
F1.08
sg8
F2.667
ssg9
VHollywood Regency
p2056
sg11
g57
sg13
V1920S ODEON CLEAR GLASS FRINGE SQUARE TABLE LAMP
p2057
sg15
g86
sg17
VMaster Bedroom
p2058
sg19
g149
sg21
V5ba4ee76f120bf1cd05151ef
p2059
sg23
VRestoration Hardware
p2060
sbsI248
(iasset
Asset
p2061
(dp2062
g3
I179
sg4
(dp2063
g6
I2
sg7
F0.33
sg8
I2
ssg9
VModern
p2064
sg11
g236
sg13
VOUSHAK SOLID COVER
p2065
sg15
g238
sg17
VLiving Room
p2066
sg19
g687
sg21
V5ba4e72ff120bf1cd05151ec
p2067
sg23
VRestoration Hardware
p2068
sbsI249
(iasset
Asset
p2069
(dp2070
g3
I3695
sg4
(dp2071
g6
F5.75
sg7
F1.667
sg8
F2.91
ssg9
VHollywood Regency
p2072
sg11
g12
sg13
VCELA SHAGREEN 6DRAWER DRESSER
p2073
sg15
g48
sg17
VMaster Bedroom
p2074
sg19
g50
sg21
V5ba4e6aef120bf1cd05151eb
p2075
sg23
VRestoration Hardware
p2076
sbsI250
(iasset
Asset
p2077
(dp2078
g3
I299
sg4
(dp2079
g6
F1.75
sg7
F0.33
sg8
F1.08
ssg9
VTRANSITIONAL
p2080
sg11
g236
sg13
VPILLOW COVER - LUMBAR
p2081
sg15
g238
sg17
VLiving Room
p2082
sg19
g687
sg21
V5ba4e658f120bf1cd05151ea
p2083
sg23
VRestoration Hardware
p2084
sbsI251
(iasset
Asset
p2085
(dp2086
g3
I2996
sg4
(dp2087
g6
F5.58
sg7
F7.16
sg8
I4
ssg9
VHollywood Regency
p2088
sg11
g12
sg13
VCELA SHAGREEN PLATFORM BED
p2089
sg15
g16
sg17
VMaster Bedroom
p2090
sg19
g20
sg21
V5ba4e5c6f120bf1cd05151e9
p2091
sg23
VRestoration Hardware
p2092
sbsI252
(iasset
Asset
p2093
(dp2094
g3
I299
sg4
(dp2095
g6
I2
sg7
F0.33
sg8
I2
ssg9
VTRANSITIONAL
p2096
sg11
g236
sg13
VOUSHAK PILLOW COVER
p2097
sg15
g238
sg17
VLiving Room
p2098
sg19
g687
sg21
V5ba4e57bf120bf1cd05151e8
p2099
sg23
VRestoration Hardware
p2100
sbsI253
(iasset
Asset
p2101
(dp2102
g3
I2195
sg4
(dp2103
g6
I3
sg7
F0.03
sg8
I4
ssg9
VModern
p2104
sg11
g214
sg13
VBELLE EPOQUE
p2105
sg15
g216
sg17
VMaster Bedroom
p2106
sg19
g218
sg21
V5ba4e169f120bf1cd05151e7
p2107
sg23
VRestoration Hardware
p2108
sbsI254
(iasset
Asset
p2109
(dp2110
g3
I2195
sg4
(dp2111
g6
I3
sg7
F0.03
sg8
I4
ssg9
VModern
p2112
sg11
g214
sg13
VBELLE EPOQUE
p2113
sg15
g216
sg17
VMaster Bedroom
p2114
sg19
g218
sg21
V5ba4e168f120bf1cd05151e6
p2115
sg23
VRestoration Hardware
p2116
sbsI255
(iasset
Asset
p2117
(dp2118
g3
I2195
sg4
(dp2119
g6
F3.5
sg7
F0.03
sg8
F3.5
ssg9
VHollywood Regency
p2120
sg11
g214
sg13
VLOMBARD MIRROR
p2121
sg15
g216
sg17
VMaster Bedroom
p2122
sg19
g218
sg21
V5ba4de46f120bf1cd05151e4
p2123
sg23
VRestoration Hardware
p2124
sbsI256
(iasset
Asset
p2125
(dp2126
g3
I4950
sg4
(dp2127
g6
I6
sg7
F8.08
sg8
F4.75
ssg9
VTRANSITIONAL
p2128
sg11
g12
sg13
VCHURCHILL FABRIC BED WITH FOOTBOARD
p2129
sg15
g16
sg17
VMaster Bedroom
p2130
sg19
g20
sg21
V5ba4db85f120bf1cd05151e3
p2131
sg23
VRestoration Hardware
p2132
sbsI257
(iasset
Asset
p2133
(dp2134
g3
I19
sg4
(dp2135
g6
F2.33
sg7
F2.5
sg8
F2.87
ssg9
VCONTEMPORARY
p2136
sg11
g12
sg13
VRowling Chair Navy
p2137
sg15
g121
sg17
VLiving Room
p2138
sg19
g123
sg21
V5ba3a173f120bf1cd0514f15
p2139
sg23
VCasaone
p2140
sbsI258
(iasset
Asset
p2141
(dp2142
g3
I11
sg4
(dp2143
g6
F1.3
sg7
F0.65
sg8
F2.16
ssg9
VCONTEMPORARY
p2144
sg11
g57
sg13
VStep Table Lamp
p2145
sg15
g86
sg17
VMaster Bedroom
p2146
sg19
g149
sg21
V5ba39761c74e4066f9fad368
p2147
sg23
VCasaone
p2148
sbsI259
(iasset
Asset
p2149
(dp2150
g3
I42
sg4
(dp2151
g6
F2.66
sg7
F1.33
sg8
F4.58
ssg9
VIndustrial
p2152
sg11
g12
sg13
VAbbott 5 Drawer Chest
p2153
sg15
g48
sg17
VMaster Bedroom
p2154
sg19
g50
sg21
V5ba38f09c74e4066f9fad367
p2155
sg23
VCasaone
p2156
sbsI260
(iasset
Asset
p2157
(dp2158
g3
I18
sg4
(dp2159
g6
F1.83
sg7
F1.33
sg8
F2.16
ssg9
VIndustrial
p2160
sg11
g12
sg13
VAbbott 2 Drawer Nightstand
p2161
sg15
g30
sg17
VMaster Bedroom
p2162
sg19
g32
sg21
V5ba384c4c74e4066f9fad2ab
p2163
sg23
VCasaone
p2164
sbsI261
(iasset
Asset
p2165
(dp2166
g3
F0.25
sg4
(dp2167
g6
F0.5
sg7
F0.5
sg8
F0.5
ssg9
VECCENTRIC / ECLECTIC
p2168
sg11
g214
sg13
VCement Flower Planter Green And Yellow
p2169
sg15
Vpots & planters
p2170
sg17
VGuest Room
p2171
sg19
Vplanters
p2172
sg21
V5ba36eb971b71b6f57058685
p2173
sg23
VCasaone
p2174
sbsI262
(iasset
Asset
p2175
(dp2176
g3
F3.25
sg4
(dp2177
g6
F1.47
sg7
F0.1
sg8
F1.47
ssg9
VMid Century
p2178
sg11
g236
sg13
VMetallic Pillow Black & Copper
p2179
sg15
g238
sg17
VLiving Room
p2180
sg19
g513
sg21
V5ba36cb071b71b6f5705867c
p2181
sg23
VCasaone
p2182
sbsI263
(iasset
Asset
p2183
(dp2184
g3
I11
sg4
(dp2185
g6
F0.72
sg7
F0.72
sg8
F2.13
ssg9
VCONTEMPORARY
p2186
sg11
g57
sg13
VBelair Table Lamp
p2187
sg15
g86
sg17
VLiving Room
p2188
sg19
g149
sg21
V5ba36c6471b71b6f57058671
p2189
sg23
VCasaone
p2190
sbsI264
(iasset
Asset
p2191
(dp2192
g3
I11
sg4
(dp2193
g6
F1.475
sg7
F0.1
sg8
F1.475
ssg9
VCOASTAL CASUAL
p2194
sg11
g236
sg13
VTurquoise Pillow
p2195
sg15
g238
sg17
VLiving Room
p2196
sg19
g513
sg21
V5ba36bae71b71b6f57058660
p2197
sg23
VCasaone
p2198
sbsI265
(iasset
Asset
p2199
(dp2200
g3
I17
sg4
(dp2201
g6
F0.98
sg7
F0.98
sg8
F5.01
ssg9
VCONTEMPORARY
p2202
sg11
g57
sg13
VBelair Floor Lamp
p2203
sg15
g86
sg17
VLiving Room
p2204
sg19
g88
sg21
V5ba3666071b71b6f5705865f
p2205
sg23
VCasaone
p2206
sbsI266
(iasset
Asset
p2207
(dp2208
g3
I12
sg4
(dp2209
g6
F1.475
sg7
F0.2
sg8
F1.475
ssg9
VCOASTAL CASUAL
p2210
sg11
g236
sg13
VBlue Reef Pillow Blue & White
p2211
sg15
g238
sg17
VLiving Room
p2212
sg19
g513
sg21
V5ba365ca71b71b6f5705865e
p2213
sg23
VCasaone
p2214
sbsI267
(iasset
Asset
p2215
(dp2216
g3
I10
sg4
(dp2217
g6
F0.6
sg7
F0.6
sg8
F1.93
ssg9
VModern
p2218
sg11
g214
sg13
VCobalt Lg Vase Blue
p2219
sg15
VVases
p2220
sg17
VLiving Room
p2221
sg19
VVases
p2222
sg21
V5ba3604f71b71b6f5705865d
p2223
sg23
VCasaone
p2224
sbsI268
(iasset
Asset
p2225
(dp2226
g3
I64
sg4
(dp2227
g6
F5.8
sg7
F2.72
sg8
F2.69
ssg9
VModern
p2228
sg11
g12
sg13
VPuget Sofa
p2229
sg15
g325
sg17
VLiving Room
p2230
sg19
g746
sg21
V5ba35f3c71b71b6f5705865c
p2231
sg23
VCasaone
p2232
sbsI269
(iasset
Asset
p2233
(dp2234
g3
I26
sg4
(dp2235
g6
F6.7
sg7
F9.1
sg8
F0.1
ssg9
VCOASTAL CASUAL
p2236
sg11
g236
sg13
VLessing Rug Natural
p2237
sg15
g411
sg17
VLiving Room
p2238
sg19
g670
sg21
V5ba35db871b71b6f5705865b
p2239
sg23
VCasaone
p2240
sbsI270
(iasset
Asset
p2241
(dp2242
g3
I35
sg4
(dp2243
g6
F6.7
sg7
F9.1
sg8
F0.1
ssg9
VCONTEMPORARY
p2244
sg11
g236
sg13
VVladimir Rug White
p2245
sg15
g411
sg17
VLiving Room
p2246
sg19
g670
sg21
V5ba35d1771b71b6f5705865a
p2247
sg23
VCasaone
p2248
sbsI271
(iasset
Asset
p2249
(dp2250
g3
I22
sg4
(dp2251
g6
F2.58
sg7
F0.1
sg8
F3.9
ssg9
VHollywood Regency
p2252
sg11
g214
sg13
VMini Squares Mirror Antique
p2253
sg15
g216
sg17
VLiving Room
p2254
sg19
g218
sg21
V5ba35b4471b71b6f57058659
p2255
sg23
VCasaone
p2256
sbsI272
(iasset
Asset
p2257
(dp2258
g3
F8.5
sg4
(dp2259
g6
F1.3
sg7
F0.1
sg8
F1.97
ssg9
VRUSTIC
p2260
sg11
g225
sg13
VBlanca Wall Decor Antique-1
p2261
sg15
Vwall accents
p2262
sg17
VLiving Room
p2263
sg19
Vmetal wall art
p2264
sg21
V5ba3567871b71b6f57058658
p2265
sg23
VCasaone
p2266
sbsI273
(iasset
Asset
p2267
(dp2268
g3
F15.05
sg4
(dp2269
g6
F2.625
sg7
F0.1
sg8
F2.625
ssg9
VMid Century
p2270
sg11
g225
sg13
VSpring Wall Decor Antique
p2271
sg15
g2262
sg17
VLiving Room
p2272
sg19
g2264
sg21
V5ba3535571b71b6f57058657
p2273
sg23
VCasaone
p2274
sbsI274
(iasset
Asset
p2275
(dp2276
g3
I35
sg4
(dp2277
g6
I4
sg7
F1.25
sg8
F2.49
ssg9
VCONTEMPORARY
p2278
sg11
g12
sg13
VKure Console Table
p2279
sg15
g30
sg17
VLiving Room
p2280
sg19
g105
sg21
V5ba3488d71b71b6f570585f0
p2281
sg23
VCasaone
p2282
sbsI275
(iasset
Asset
p2283
(dp2284
g3
I12
sg4
(dp2285
g6
F1.7
sg7
I2
sg8
F3.33
ssg9
VIndustrial
p2286
sg11
g12
sg13
VSkyline Dining Chair
p2287
sg15
g307
sg17
VDining Room
p2288
sg19
g336
sg21
V5ba34137e852e80dad11b791
p2289
sg23
VCasaone
p2290
sbsI276
(iasset
Asset
p2291
(dp2292
g3
I59
sg4
(dp2293
g6
F4.52
sg7
F4.52
sg8
F2.55
ssg9
VCONTEMPORARY
p2294
sg11
g12
sg13
VBeaumont Dining Table
p2295
sg15
g307
sg17
VDining Room
p2296
sg19
g379
sg21
V5ba33b84e852e80dad11b790
p2297
sg23
VCasaone
p2298
sbsI277
(iasset
Asset
p2299
(dp2300
g3
I32
sg4
(dp2301
g6
F5.31
sg7
F7.16
sg8
F3.93
ssg9
VCONTEMPORARY
p2302
sg11
g12
sg13
VTaylor Platform Bed
p2303
sg15
g16
sg17
VGuest Room
p2304
sg19
g20
sg21
V5ba3379be852e80dad11b78f
p2305
sg23
VCasaone
p2306
sbsI278
(iasset
Asset
p2307
(dp2308
g3
I28
sg4
(dp2309
g6
I7
sg7
F9.1
sg8
F0.03
ssg9
VModern
p2310
sg11
g236
sg13
VAnson Rug
p2311
sg15
g411
sg17
VLiving Room
p2312
sg19
g670
sg21
V5ba265cde852e80dad11b778
p2313
sg23
VCasaone
p2314
sbsI279
(iasset
Asset
p2315
(dp2316
g3
I46
sg4
(dp2317
g6
F3.91
sg7
F2.15
sg8
F1.25
ssg9
VCONTEMPORARY
p2318
sg11
g12
sg13
VShaman Coffee Table
p2319
sg15
g30
sg17
VLiving Room
p2320
sg19
g140
sg21
V5ba262f1e852e80dad11b777
p2321
sg23
VCasaone
p2322
sbsI280
(iasset
Asset
p2323
(dp2324
g3
I26
sg4
(dp2325
g6
F1.64
sg7
F1.64
sg8
F1.49
ssg9
VModern
p2326
sg11
g12
sg13
VShaman Side Table
p2327
sg15
g30
sg17
VLiving Room
p2328
sg19
VNested Tables
p2329
sg21
V5ba252b9e852e80dad11b75c
p2330
sg23
VCasaone
p2331
sbsI281
(iasset
Asset
p2332
(dp2333
g3
I850
sg4
(dp2334
g6
F4.58
sg7
F1.91
sg8
F2.5
ssg9
VRUSTIC
p2335
sg11
g12
sg13
VFULTON DESK
p2336
sg15
g30
sg17
VStudio
p2337
sg19
VStudy Tables
p2338
sg21
V5ba24cc9e852e80dad11b729
p2339
sg23
VRestoration Hardware
p2340
sbsI282
(iasset
Asset
p2341
(dp2342
g3
I1195
sg4
(dp2343
g6
F2.25
sg7
F2.08
sg8
F2.75
ssg9
VHollywood Regency
p2344
sg11
g12
sg13
VTREVISO TUFTED DESK CHAIR
p2345
sg15
g121
sg17
VMaster Bedroom
p2346
sg19
VOffice Chairs
p2347
sg21
V5ba2449de852e80dad11b6de
p2348
sg23
VRestoration Hardware
p2349
sbsI283
(iasset
Asset
p2350
(dp2351
g3
I495
sg4
(dp2352
g6
F1.83
sg7
F0.03
sg8
F1.83
ssg9
VModern
p2353
sg11
g225
sg13
VPRESERVED SEA FAN
p2354
sg15
g502
sg17
VLiving Room
p2355
sg19
g924
sg21
V5ba2428be852e80dad11b6ca
p2356
sg23
VRestoration Hardware
p2357
sbsI284
(iasset
Asset
p2358
(dp2359
g3
I695
sg4
(dp2360
g6
F1.667
sg7
F2.08
sg8
F3.41
ssg9
VIndustrial
p2361
sg11
g12
sg13
VHUDSON PARSONS LEATHER SIDE CHAIR
p2362
sg15
g121
sg17
VMaster Bedroom
p2363
sg19
g2347
sg21
V5ba23beae852e80dad11b6ab
p2364
sg23
VRestoration Hardware
p2365
sbsI285
(iasset
Asset
p2366
(dp2367
g3
I0
sg4
(dp2368
g6
I4
sg7
F2.29
sg8
F13.34
ssg9
VRUSTIC
p2369
sg11
g214
sg13
VFireplace
p2370
sg15
g711
sg17
VLiving Room
p2371
sg19
VCurios
p2372
sg21
V5ba231e5e852e80dad11b650
p2373
sg23
VHomefuly
p2374
sbsI286
(iasset
Asset
p2375
(dp2376
g3
I279
sg4
(dp2377
g6
F4.58
sg7
F4.58
sg8
I2
ssg9
VIndustrial
p2378
sg11
g12
sg13
VLUXE FAUX FUR BEAN BAG-ARCTIC FOX
p2379
sg15
g121
sg17
VMaster Bedroom
p2380
sg19
VBean Bags
p2381
sg21
V5ba22e62e852e80dad11b64f
p2382
sg23
VRestoration Hardware
p2383
sbsI287
(iasset
Asset
p2384
(dp2385
g3
I279
sg4
(dp2386
g6
F4.58
sg7
F4.58
sg8
I2
ssg9
VIndustrial
p2387
sg11
g12
sg13
VLUXE FAUX FUR BEAN BAG-LYNX
p2388
sg15
g121
sg17
VGuest Room
p2389
sg19
g2381
sg21
V5ba22bece852e80dad11b64e
p2390
sg23
VRestoration Hardware
p2391
sbsI288
(iasset
Asset
p2392
(dp2393
g3
I279
sg4
(dp2394
g6
F4.58
sg7
F4.58
sg8
I2
ssg9
VIndustrial
p2395
sg11
g12
sg13
VLUXE FAUX FUR BEAN BAG-MINK
p2396
sg15
g121
sg17
VLiving Room
p2397
sg19
g2381
sg21
V5ba22a92e852e80dad11b64d
p2398
sg23
VRestoration Hardware
p2399
sbsI289
(iasset
Asset
p2400
(dp2401
g3
I169
sg4
(dp2402
g6
F0.667
sg7
F0.667
sg8
F0.83
ssg9
VIndustrial
p2403
sg11
g57
sg13
VCLEAR GLASS FUNNEL SCONCE
p2404
sg15
g59
sg17
VStudio
p2405
sg19
VWall Lights
p2406
sg21
V5ba21240e852e80dad11b630
p2407
sg23
VRestoration Hardware
p2408
sbsI290
(iasset
Asset
p2409
(dp2410
g3
I1895
sg4
(dp2411
g6
F4.5
sg7
F4.5
sg8
F1.33
ssg9
VIndustrial
p2412
sg11
g12
sg13
VAGED ELM-MARTENS ROUND COFFEE TABLE
p2413
sg15
g30
sg17
VStudio
p2414
sg19
g140
sg21
V5ba20f66e852e80dad11b62f
p2415
sg23
VRestoration Hardware
p2416
sbsI291
(iasset
Asset
p2417
(dp2418
g3
I1895
sg4
(dp2419
g6
F4.5
sg7
F4.5
sg8
F1.33
ssg9
VIndustrial
p2420
sg11
g12
sg13
VAGED BROWN OAK-MARTENS ROUND COFFEE TABLE
p2421
sg15
g30
sg17
VLiving Room
p2422
sg19
g140
sg21
V5ba20e6be852e80dad11b62e
p2423
sg23
VRestoration Hardware
p2424
sbsI292
(iasset
Asset
p2425
(dp2426
g3
I450
sg4
(dp2427
g6
I1
sg7
I1
sg8
F2.5
ssg9
VIndustrial
p2428
sg11
g57
sg13
V1940S ARCHITECT'S BOOM SCONCE
p2429
sg15
g59
sg17
VStudio
p2430
sg19
g2406
sg21
V5ba20ca8e852e80dad11b62d
p2431
sg23
VRestoration Hardware
p2432
sbsI293
(iasset
Asset
p2433
(dp2434
g3
I4695
sg4
(dp2435
g6
F6.5
sg7
F7.5
sg8
F3.167
ssg9
VIndustrial
p2436
sg11
g12
sg13
VRECLAIMED RUSSIAN OAK PLATFORM BED
p2437
sg15
g16
sg17
VStudio
p2438
sg19
g20
sg21
V5ba20a79e852e80dad11b62c
p2439
sg23
VRestoration Hardware
p2440
sbsI294
(iasset
Asset
p2441
(dp2442
g3
I2350
sg4
(dp2443
g6
F4.58
sg7
F2.66
sg8
F1.25
ssg9
VCONTEMPORARY
p2444
sg11
g12
sg13
VCOFFEE TABLE OTTOMAN
p2445
sg15
g30
sg17
VLiving Room
p2446
sg19
g140
sg21
V5ba207d3e852e80dad11b62b
p2447
sg23
VRestoration Hardware
p2448
sbsI295
(iasset
Asset
p2449
(dp2450
g3
I5195
sg4
(dp2451
g6
F7.33
sg7
F8.08
sg8
F3.58
ssg9
VIndustrial
p2452
sg11
g12
sg13
VASPEN FRENCH OAK PLATFORM BED
p2453
sg15
g16
sg17
VStudio
p2454
sg19
g20
sg21
V5ba20663e852e80dad11b62a
p2455
sg23
VRestoration Hardware
p2456
sbsI296
(iasset
Asset
p2457
(dp2458
g3
I7895
sg4
(dp2459
g6
I6
sg7
F3.16
sg8
F2.66
ssg9
VCONTEMPORARY
p2460
sg11
g12
sg13
VCLASSIC SLOPE ARM SOFA
p2461
sg15
g325
sg17
VLiving Room
p2462
sg19
g746
sg21
V5ba2060be852e80dad11b629
p2463
sg23
VRestoration Hardware
p2464
sbsI297
(iasset
Asset
p2465
(dp2466
g3
I395
sg4
(dp2467
g6
F2.08
sg7
F2.41
sg8
F2.5
ssg9
VIndustrial
p2468
sg11
g12
sg13
VCOUTURIER'S CHAIR
p2469
sg15
g121
sg17
VLiving Room
p2470
sg19
g123
sg21
V5ba20093e852e80dad11b628
p2471
sg23
VRestoration Hardware
p2472
sbsI298
(iasset
Asset
p2473
(dp2474
g3
I2295
sg4
(dp2475
g6
I5
sg7
I7
sg8
F0.1
ssg9
VScandinavian
p2476
sg11
g236
sg13
VQUADRO RUG - MARINE
p2477
sg15
g411
sg17
VLiving Room
p2478
sg19
g670
sg21
V5b9ff1ece852e80dad11b3ca
p2479
sg23
VRestoration Hardware
p2480
sbsI299
(iasset
Asset
p2481
(dp2482
g3
I299
sg4
(dp2483
g6
F1.83
sg7
F0.4
sg8
F1.83
ssg9
VScandinavian
p2484
sg11
g236
sg13
VSTOWE BRUSHED ALPACA MULTISTRIPE PILLOW COVER
p2485
sg15
g238
sg17
VMaster Bedroom
p2486
sg19
g687
sg21
V5b9feb666d9c900e1f76b9fe
p2487
sg23
VRestoration Hardware
p2488
sbsI300
(iasset
Asset
p2489
(dp2490
g3
I299
sg4
(dp2491
g6
F1.83
sg7
F0.4
sg8
F1.83
ssg9
VECCENTRIC / ECLECTIC
p2492
sg11
g236
sg13
VMOROCCAN CACTUS SILK PILLOW COVER - SQUARE
p2493
sg15
g238
sg17
VMaster Bedroom
p2494
sg19
g687
sg21
V5b9fead26d9c900e1f76b9fd
p2495
sg23
VRestoration Hardware
p2496
sbsI301
(iasset
Asset
p2497
(dp2498
g3
I219
sg4
(dp2499
g6
F1.75
sg7
F0.8
sg8
F1.08
ssg9
VBohemian
p2500
sg11
g236
sg13
VMOROCCAN CACTUS SILK PILLOW COVER
p2501
sg15
g238
sg17
VMaster Bedroom
p2502
sg19
g687
sg21
V5b9fe93b6d9c900e1f76b9fc
p2503
sg23
VRestoration Hardware
p2504
sbsI302
(iasset
Asset
p2505
(dp2506
g3
I0
sg4
(dp2507
g6
I6
sg7
F0.5
sg8
I7
ssg9
VIndustrial
p2508
sg11
g12
sg13
VPartition_Solid
p2509
sg15
VPartitions
p2510
sg17
VLiving Room
p2511
sg19
VPartitions
p2512
sg21
V5b9fe7726d9c900e1f76b9fb
p2513
sg23
VHomefuly
p2514
sbsI303
(iasset
Asset
p2515
(dp2516
g3
I4095
sg4
(dp2517
g6
I7
sg7
F3.33
sg8
F2.5
ssg9
VMid Century
p2518
sg11
g12
sg13
VX-BASE RECTANGULAR DINING TABLE
p2519
sg15
g307
sg17
VDining Room
p2520
sg19
g379
sg21
V5b9fe6fc6d9c900e1f76b9fa
p2521
sg23
VRestoration Hardware
p2522
sbsI304
(iasset
Asset
p2523
(dp2524
g3
I3495
sg4
(dp2525
g6
I7
sg7
F2.5
sg8
I3
ssg9
VIndustrial
p2526
sg11
g12
sg13
VTRESTLE RECTANGULAR EXTENSION DINING TABLE
p2527
sg15
g307
sg17
VDining Room
p2528
sg19
g379
sg21
V5b9fe02b6d9c900e1f76b9cd
p2529
sg23
VRestoration Hardware
p2530
sbsI305
(iasset
Asset
p2531
(dp2532
g3
I3095
sg4
(dp2533
g6
F3.667
sg7
I2
sg8
F6.41
ssg9
VMid Century
p2534
sg11
g12
sg13
VENGLISH BRASS BAR PULL GLASS DOUBLE-DOOR CABINET
p2535
sg15
g165
sg17
VLiving and Dining Room
p2536
sg19
VCrockery Units
p2537
sg21
V5b9fd4c46d9c900e1f76b90a
p2538
sg23
VRestoration Hardware
p2539
sbsI306
(iasset
Asset
p2540
(dp2541
g3
I2195
sg4
(dp2542
g6
F3.167
sg7
F1.5
sg8
F6.4
ssg9
VIndustrial
p2543
sg11
g12
sg13
VAGED OAK FRENCH CASEMENT DOUBLE-DOOR CABINET
p2544
sg15
g165
sg17
VDining Room
p2545
sg19
g2537
sg21
V5b9fd3306d9c900e1f76b909
p2546
sg23
VRestoration Hardware
p2547
sbsI307
(iasset
Asset
p2548
(dp2549
g3
I1695
sg4
(dp2550
g6
F2.9
sg7
F2.9
sg8
F2.5
ssg9
VMINIMALIST
p2551
sg11
g12
sg13
VSAND 1930S ENGLISH TUFTED TUB CHAIR
p2552
sg15
g121
sg17
VLiving and Dining Room
p2553
sg19
g123
sg21
V5b9fc8e36d9c900e1f76b8f8
p2554
sg23
VRestoration Hardware
p2555
sbsI308
(iasset
Asset
p2556
(dp2557
g3
I297
sg4
(dp2558
g6
F1.25
sg7
F1.25
sg8
F2.41
ssg9
VIndustrial
p2559
sg11
g12
sg13
V1940S VINTAGE TOLEDO BARSTOOL
p2560
sg15
g121
sg17
VDining Room
p2561
sg19
g1831
sg21
V5b9fb6ef6d9c900e1f76b8e5
p2562
sg23
VRestoration Hardware
p2563
sbsI309
(iasset
Asset
p2564
(dp2565
g3
I595
sg4
(dp2566
g6
F0.9
sg7
F0.9
sg8
I2
ssg9
VIndustrial
p2567
sg11
g57
sg13
VLANGUEDOC PENDANT
p2568
sg15
g59
sg17
VDining Room
p2569
sg19
g787
sg21
V5b9fb5c56d9c900e1f76b8e4
p2570
sg23
VRestoration Hardware
p2571
sbsI310
(iasset
Asset
p2572
(dp2573
g3
I995
sg4
(dp2574
g6
F5.33
sg7
I2
sg8
I3
ssg9
VIndustrial
p2575
sg11
g12
sg13
VFLATIRON BAR
p2576
sg15
g30
sg17
VDining Room
p2577
sg19
VBar tables
p2578
sg21
V5b9fae846d9c900e1f76b8de
p2579
sg23
VRestoration Hardware
p2580
sbsI311
(iasset
Asset
p2581
(dp2582
g3
I1145
sg4
(dp2583
g6
F2.25
sg7
F0.03
sg8
F3.16
ssg9
VModern
p2584
sg11
g225
sg13
VCALIFORNIA SUNSET 4
p2585
sg15
g502
sg17
VLiving and Dining Room
p2586
sg19
g924
sg21
V5b9f6a7d6d9c900e1f76b56f
p2587
sg23
VRestoration Hardware
p2588
sbsI312
(iasset
Asset
p2589
(dp2590
g3
I1745
sg4
(dp2591
g6
F3.16
sg7
F0.03
sg8
F3.16
ssg9
VModern
p2592
sg11
g225
sg13
VKATE SCHERMERHORN
p2593
sg15
g502
sg17
VLiving Room
p2594
sg19
g924
sg21
V5b9f67586d9c900e1f76b500
p2595
sg23
VRestoration Hardware
p2596
sbsI313
(iasset
Asset
p2597
(dp2598
g3
I1495
sg4
(dp2599
g6
F3.33
sg7
F3.33
sg8
F3.5
ssg9
VIndustrial
p2600
sg11
g57
sg13
VORB CHANDELIER 
p2601
sg15
g59
sg17
VLiving and Dining Room
p2602
sg19
g61
sg21
V5b9f640e6d9c900e1f76b4ff
p2603
sg23
VRestoration Hardware
p2604
sbsI314
(iasset
Asset
p2605
(dp2606
g3
I1865
sg4
(dp2607
g6
F3.31
sg7
F3.31
sg8
F3.33
ssg9
VIndustrial
p2608
sg11
g57
sg13
VVINTAGE ROUND CHANDELIER
p2609
sg15
g59
sg17
VLiving Room
p2610
sg19
g61
sg21
V5b9f5c31d846844c6fc4bcfd
p2611
sg23
VRestoration Hardware
p2612
sbsI315
(iasset
Asset
p2613
(dp2614
g3
I2495
sg4
(dp2615
g6
F2.5
sg7
F0.25
sg8
F3.33
ssg9
VModern
p2616
sg11
g214
sg13
VRIBBED METAL MIRROR
p2617
sg15
g216
sg17
VLiving Room
p2618
sg19
g218
sg21
V5b9f54c1d846844c6fc4bcb1
p2619
sg23
VRestoration Hardware
p2620
sbsI316
(iasset
Asset
p2621
(dp2622
g3
I2395
sg4
(dp2623
g6
F2.5
sg7
F0.25
sg8
F3.33
ssg9
VModern
p2624
sg11
g214
sg13
VMETAL FRAMED MIRROR
p2625
sg15
g216
sg17
VLiving Room
p2626
sg19
g218
sg21
V5b9f5377d846844c6fc4bcb0
p2627
sg23
VRestoration Hardware
p2628
sbsI317
(iasset
Asset
p2629
(dp2630
g3
I255
sg4
(dp2631
g6
F2.25
sg7
F0.1667
sg8
F1.25
ssg9
VRUSTIC
p2632
sg11
g214
sg13
VCARVED SLATE RECTANGULAR VASE
p2633
sg15
g2170
sg17
VGuest Room
p2634
sg19
Vpots
p2635
sg21
V5b9cf57971d9394a4fa18f07
p2636
sg23
VRestoration Hardware
p2637
sbsI318
(iasset
Asset
p2638
(dp2639
g3
I115
sg4
(dp2640
g6
F2.27
sg7
I1
sg8
F0.667
ssg9
VRUSTIC
p2641
sg11
g214
sg13
VWEATHERED STONE VESSEL
p2642
sg15
g2170
sg17
VLiving Room
p2643
sg19
g2635
sg21
V5b9cef1171d9394a4fa18f06
p2644
sg23
VRestoration Hardware
p2645
sbsI319
(iasset
Asset
p2646
(dp2647
g3
I85
sg4
(dp2648
g6
F0.67
sg7
F0.67
sg8
F0.83
ssg9
VRUSTIC
p2649
sg11
g214
sg13
VORGANIC CONCRETE VESSEL SMALL
p2650
sg15
g2170
sg17
VLiving Room
p2651
sg19
g2635
sg21
V5b9ce50771d9394a4fa18efe
p2652
sg23
VRestoration Hardware
p2653
sbsI320
(iasset
Asset
p2654
(dp2655
g3
I1795
sg4
(dp2656
g6
F7.91
sg7
F1.25
sg8
F1.5
ssg9
VIndustrial
p2657
sg11
g12
sg13
VPARSONS BENCH
p2658
sg15
g121
sg17
VDining Room
p2659
sg19
g370
sg21
V5b9cddcf71d9394a4fa18efd
p2660
sg23
VRestoration Hardware
p2661
sbsI321
(iasset
Asset
p2662
(dp2663
g3
I795
sg4
(dp2664
g6
F2.66
sg7
F1.91
sg8
F6.91
ssg9
VIndustrial
p2665
sg11
g12
sg13
VRECLAIMED SHELVING
p2666
sg15
g165
sg17
VLiving and Dining Room
p2667
sg19
g267
sg21
V5b9cda9f71d9394a4fa18ed5
p2668
sg23
VRestoration Hardware
p2669
sbsI322
(iasset
Asset
p2670
(dp2671
g3
I109
sg4
(dp2672
g6
F0.667
sg7
F0.1
sg8
F0.833
ssg9
VHollywood Regency
p2673
sg11
g225
sg13
V8X10 CAST RIBBED METAL FRAME
p2674
sg15
VPicture Frames
p2675
sg17
VGuest Room
p2676
sg19
Vsingle photo frames
p2677
sg21
V5b9cd89771d9394a4fa18ed4
p2678
sg23
VRestoration Hardware
p2679
sbsI323
(iasset
Asset
p2680
(dp2681
g3
I89
sg4
(dp2682
g6
F0.417
sg7
F0.1
sg8
F0.58
ssg9
VRUSTIC
p2683
sg11
g225
sg13
V5X7 CAST RIBBED METAL FRAME
p2684
sg15
g2675
sg17
VGuest Room
p2685
sg19
g2677
sg21
V5b9cd78c71d9394a4fa18ecb
p2686
sg23
VRestoration Hardware
p2687
sbsI324
(iasset
Asset
p2688
(dp2689
g3
I79
sg4
(dp2690
g6
F0.33
sg7
F0.1
sg8
F0.5
ssg9
VRUSTIC
p2691
sg11
g225
sg13
V4X6 CAST RIBBED METAL FRAME
p2692
sg15
g2675
sg17
VGuest Room
p2693
sg19
g2677
sg21
V5b9cd70c71d9394a4fa18eca
p2694
sg23
VRestoration Hardware
p2695
sbsI325
(iasset
Asset
p2696
(dp2697
g3
I995
sg4
(dp2698
g6
F2.29
sg7
F1.58
sg8
F6.45
ssg9
VIndustrial
p2699
sg11
g12
sg13
VNARROW SINGLE SHELVING
p2700
sg15
g165
sg17
VLiving and Dining Room
p2701
sg19
g267
sg21
V5b9cd04171d9394a4fa18ec9
p2702
sg23
VRestoration Hardware
p2703
sbsI326
(iasset
Asset
p2704
(dp2705
g3
I3195
sg4
(dp2706
g6
F2.75
sg7
F2.66
sg8
F5.08
ssg9
VMid Century
p2707
sg11
g12
sg13
VVERSAILLES CHAIR
p2708
sg15
g121
sg17
VLiving Room
p2709
sg19
g123
sg21
V5b9cc2b071d9394a4fa18ec8
p2710
sg23
VRestoration Hardware
p2711
sbsI327
(iasset
Asset
p2712
(dp2713
g3
I850
sg4
(dp2714
g6
F2.16
sg7
F2.25
sg8
F2.33
ssg9
VMid Century
p2715
sg11
g12
sg13
VSOPHIE TUFTED CHAIR
p2716
sg15
g121
sg17
VLiving Room
p2717
sg19
g123
sg21
V5b9ca7549eb22015d1323538
p2718
sg23
VRestoration Hardware
p2719
sbsI328
(iasset
Asset
p2720
(dp2721
g3
F112.99
sg4
(dp2722
g6
F0.5
sg7
F0.5
sg8
F1.33
ssg9
VScandinavian
p2723
sg11
g57
sg13
VSwing Arm Lamp
p2724
sg15
g59
sg17
VGuest Room
p2725
sg19
g2406
sg21
V5b9bd2c4b9db432925e7c1d6
p2726
sg23
VWayfair
p2727
sbsI329
(iasset
Asset
p2728
(dp2729
g3
I129
sg4
(dp2730
g6
F1.67
sg7
I2
sg8
F2.08
ssg9
VScandinavian
p2731
sg11
g214
sg13
VOversized Seagrass Basket
p2732
sg15
VBaskets
p2733
sg17
VKids Room
p2734
sg19
VWoven Baskets
p2735
sg21
V5b9bbc24b9db432925e7c1a2
p2736
sg23
VWest Elm
p2737
sbsI330
(iasset
Asset
p2738
(dp2739
g3
I3515
sg4
(dp2740
g6
I10
sg7
F3.33
sg8
F2.5
ssg9
VIndian Contemporary
p2741
sg11
g12
sg13
VSALVAGED WOOD X-BASE  TABLE
p2742
sg15
g307
sg17
VDining Room
p2743
sg19
g379
sg21
V5b9bb8dab9db432925e7c192
p2744
sg23
VRestoration Hardware
p2745
sbsI331
(iasset
Asset
p2746
(dp2747
g3
I4095
sg4
(dp2748
g6
I10
sg7
F3.33
sg8
F2.5
ssg9
VRUSTIC
p2749
sg11
g12
sg13
VSALVAGED WOOD DINING TABLE
p2750
sg15
g307
sg17
VDining Room
p2751
sg19
g379
sg21
V5b9bb67db9db432925e7c18d
p2752
sg23
VRestoration Hardware
p2753
sbsI332
(iasset
Asset
p2754
(dp2755
g3
I1040
sg4
(dp2756
g6
F4.5
sg7
F1.5
sg8
F2.67
ssg9
VScandinavian
p2757
sg11
g12
sg13
VJeweled 6 Drawer Dresser
p2758
sg15
g48
sg17
VKids Room
p2759
sg19
g50
sg21
V5b9bb4c2b9db432925e7c174
p2760
sg23
VWest Elm
p2761
sbsI333
(iasset
Asset
p2762
(dp2763
g3
I2610
sg4
(dp2764
g6
F3.33
sg7
F3.33
sg8
I2
ssg9
VRUSTIC
p2765
sg11
g57
sg13
VANTLER CHANDELIER
p2766
sg15
g59
sg17
VLiving Room
p2767
sg19
g61
sg21
V5b9ba5e4b9db432925e7c153
p2768
sg23
VRestoration Hardware
p2769
sbsI334
(iasset
Asset
p2770
(dp2771
g3
I247
sg4
(dp2772
g6
F1.66
sg7
I2
sg8
F3.16
ssg9
VRUSTIC
p2773
sg11
g12
sg13
VCANE BACK CHAIR
p2774
sg15
g307
sg17
VDining Room
p2775
sg19
g336
sg21
V5b9ba013b9db432925e7c152
p2776
sg23
VRestoration Hardware
p2777
sbsI335
(iasset
Asset
p2778
(dp2779
g3
I595
sg4
(dp2780
g6
F1.75
sg7
F1.78
sg8
F2.75
ssg9
VScandinavian
p2781
sg11
g12
sg13
VKLISMOS FABRIC SIDE CHAIR
p2782
sg15
g307
sg17
VDining Room
p2783
sg19
g336
sg21
V5b9b9e64b9db432925e7c151
p2784
sg23
VRestoration Hardware
p2785
sbsI336
(iasset
Asset
p2786
(dp2787
g3
I0
sg4
(dp2788
g6
F2.5
sg7
F0.1
sg8
I5
ssg9
VScandinavian
p2789
sg11
g214
sg13
VLadder Deco
p2790
sg15
g711
sg17
VMaster Bedroom
p2791
sg19
VNAUTICAL DECOR
p2792
sg21
V5b9b9b7cb9db432925e7c121
p2793
sg23
VHomefuly
p2794
sbsI337
(iasset
Asset
p2795
(dp2796
g3
F115.99
sg4
(dp2797
g6
I2
sg7
F0.01
sg8
I3
ssg9
VScandinavian
p2798
sg11
g214
sg13
VLongwood Wall Mirror
p2799
sg15
g216
sg17
VMaster Bedroom
p2800
sg19
g218
sg21
V5b9b9455b9db432925e7c0ec
p2801
sg23
VJoss And Main
p2802
sbsI338
(iasset
Asset
p2803
(dp2804
g3
I10295
sg4
(dp2805
g6
I6
sg7
F2.83
sg8
F2.58
ssg9
VCONTEMPORARY
p2806
sg11
g12
sg13
VPAXTON SOFA
p2807
sg15
g325
sg17
VLiving Room
p2808
sg19
g746
sg21
V5b9b8cbbb9db432925e7c0b3
p2809
sg23
VRestoration Hardware
p2810
sbsI339
(iasset
Asset
p2811
(dp2812
g3
I0
sg4
(dp2813
g6
I4
sg7
F0.1
sg8
I5
ssg9
VScandinavian
p2814
sg11
g214
sg13
VPinboard Deco
p2815
sg15
g711
sg17
VGuest Room
p2816
sg19
g713
sg21
V5b9ad6b5fd10fd61a1f41c95
p2817
sg23
VHomefuly
p2818
sbsI340
(iasset
Asset
p2819
(dp2820
g3
F10.99
sg4
(dp2821
g6
F1.5
sg7
F0.1
sg8
F1.5
ssg9
VIndustrial
p2822
sg11
g236
sg13
VCotton Pillow Cover
p2823
sg15
g238
sg17
VMaster Bedroom
p2824
sg19
g687
sg21
V5b9ad48efd10fd61a1f41c94
p2825
sg23
VJoss And Main
p2826
sbsI341
(iasset
Asset
p2827
(dp2828
g3
F76.99
sg4
(dp2829
g6
F4.33
sg7
F0.3
sg8
I7
ssg9
VScandinavian
p2830
sg11
g236
sg13
VThermal Grommet Curtain Panels
p2831
sg15
VCurtains
p2832
sg17
VGuest Room
p2833
sg19
VDoor Curtains
p2834
sg21
V5b9ad179fd10fd61a1f41c8b
p2835
sg23
VJoss And Main
p2836
sbsI342
(iasset
Asset
p2837
(dp2838
g3
I320
sg4
(dp2839
g6
F1.5
sg7
F1.5
sg8
I2
ssg9
VScandinavian
p2840
sg11
g12
sg13
VJeweled Nightstand
p2841
sg15
g30
sg17
VMaster Bedroom
p2842
sg19
g32
sg21
V5b9acbdbfd10fd61a1f41c8a
p2843
sg23
VWest Elm
p2844
sbsI343
(iasset
Asset
p2845
(dp2846
g3
F118.32
sg4
(dp2847
g6
F4.58
sg7
F6.48
sg8
F4.04
ssg9
VSHABBY-CHIC
p2848
sg11
g12
sg13
VRhys Platform Bed
p2849
sg15
g16
sg17
VKids Room
p2850
sg19
g20
sg21
V5b9ac664fd10fd61a1f41c86
p2851
sg23
VWayfair
p2852
sbsI344
(iasset
Asset
p2853
(dp2854
g3
F79.99
sg4
(dp2855
g6
F1.65
sg7
F1.32
sg8
F2.25
ssg9
VScandinavian
p2856
sg11
g12
sg13
VAdeline End Table
p2857
sg15
g30
sg17
VMaster Bedroom
p2858
sg19
g78
sg21
V5b99523811c8f26b3c7b7c2b
p2859
sg23
VWayfair
p2860
sbsI345
(iasset
Asset
p2861
(dp2862
g3
F31.99
sg4
(dp2863
g6
F2.95
sg7
F0.375
sg8
F0.29
ssg9
VScandinavian
p2864
sg11
g12
sg13
VPicture Ledge Wall Shelf
p2865
sg15
g165
sg17
VLiving Room
p2866
sg19
g563
sg21
V5b993ff611c8f26b3c7b7c20
p2867
sg23
VWayfair
p2868
sbsI346
(iasset
Asset
p2869
(dp2870
g3
F108.99
sg4
(dp2871
g6
F3.375
sg7
F0.01
sg8
F2.125
ssg9
VScandinavian
p2872
sg11
g225
sg13
VAcrylic Painting Print
p2873
sg15
g502
sg17
VMaster Bedroom
p2874
sg19
Vstill life art panels
p2875
sg21
V5b9939b511c8f26b3c7b7bef
p2876
sg23
VJoss And Main
p2877
sbsI347
(iasset
Asset
p2878
(dp2879
g3
F126.99
sg4
(dp2880
g6
I5
sg7
F7.5
sg8
F0.01
ssg9
VScandinavian
p2881
sg11
g236
sg13
VDuhon Ivory
p2882
sg15
g411
sg17
VMaster Bedroom
p2883
sg19
g670
sg21
V5b99363111c8f26b3c7b7bee
p2884
sg23
VJoss And Main
p2885
sbsI348
(iasset
Asset
p2886
(dp2887
g3
F175.99
sg4
(dp2888
g6
I8
sg7
I10
sg8
F0.1
ssg9
VScandinavian
p2889
sg11
g236
sg13
VWelford White Shag Area Rug
p2890
sg15
g411
sg17
VLiving Room
p2891
sg19
g670
sg21
V5b99329e11c8f26b3c7b7bed
p2892
sg23
VWayfair
p2893
sbsI349
(iasset
Asset
p2894
(dp2895
g3
I78
sg4
(dp2896
g6
F1.5
sg7
F0.25
sg8
F1.5
ssg9
VIndustrial
p2897
sg11
g236
sg13
VMarilyn House Pillow
p2898
sg15
g238
sg17
VLiving Room
p2899
sg19
g513
sg21
V5b990c3384482a5b8a73f885
p2900
sg23
VWayfair
p2901
sbsI350
(iasset
Asset
p2902
(dp2903
g3
I570
sg4
(dp2904
g6
F2.66
sg7
F2.66
sg8
F1.16
ssg9
VIndustrial
p2905
sg11
g12
sg13
VSheree Concrete Table
p2906
sg15
g30
sg17
VLiving Room
p2907
sg19
g140
sg21
V5b99063084482a5b8a73f860
p2908
sg23
VWayfair
p2909
sbsI351
(iasset
Asset
p2910
(dp2911
g3
I113
sg4
(dp2912
g6
F1.6
sg7
F1.64
sg8
F3.18
ssg9
VScandinavian
p2913
sg11
g12
sg13
VToby Dining Chair
p2914
sg15
g307
sg17
VDining Room
p2915
sg19
g336
sg21
V5b98fe1ebf30fa668820460b
p2916
sg23
VWayfair
p2917
sbsI352
(iasset
Asset
p2918
(dp2919
g3
I36
sg4
(dp2920
g6
I8
sg7
I10
sg8
F0.05
ssg9
VIndustrial
p2921
sg11
g236
sg13
VBernd Area Rug
p2922
sg15
g411
sg17
VLiving Room
p2923
sg19
g670
sg21
V5b98f825bf30fa66882045ef
p2924
sg23
VWayfair
p2925
sbsI353
(iasset
Asset
p2926
(dp2927
g3
I122
sg4
(dp2928
g6
F3.83
sg7
I5
sg8
F0.05
ssg9
VIndustrial
p2929
sg11
g236
sg13
VWynsum Area Rug
p2930
sg15
g411
sg17
VLiving Room
p2931
sg19
g413
sg21
V5b98f317bf30fa66882045bc
p2932
sg23
VWayfair
p2933
sbsI354
(iasset
Asset
p2934
(dp2935
g3
I0
sg4
(dp2936
g6
I3
sg7
F0.1
sg8
I2
ssg9
VCOASTAL CASUAL
p2937
sg11
g214
sg13
VFence Decor
p2938
sg15
g711
sg17
VKids Room
p2939
sg19
g2792
sg21
V5b98f1abbf30fa66882045a3
p2940
sg23
VHomefuly
p2941
sbsI355
(iasset
Asset
p2942
(dp2943
g3
F519.99
sg4
(dp2944
g6
F5.75
sg7
F7.4
sg8
I4
ssg9
VScandinavian
p2945
sg11
g12
sg13
VParocela Upholstered Platform Bed
p2946
sg15
g16
sg17
VKids Room
p2947
sg19
g20
sg21
V5b98eb85bf30fa66882044d7
p2948
sg23
VWayfair
p2949
sbsI356
(iasset
Asset
p2950
(dp2951
g3
I80
sg4
(dp2952
g6
F0.83
sg7
F0.87
sg8
F0.83
ssg9
VIndustrial
p2953
sg11
g57
sg13
VGingrich Armed Scone
p2954
sg15
g59
sg17
VKids Room
p2955
sg19
g2406
sg21
V5b98dc82bf30fa668820446b
p2956
sg23
VWayfair
p2957
sbsI357
(iasset
Asset
p2958
(dp2959
g3
I1250
sg4
(dp2960
g6
F1.58
sg7
F1.58
sg8
F1.58
ssg9
VScandinavian
p2961
sg11
g12
sg13
VRECLAIMED RUSSIAN OAK PARSONS CUBE-BROWN
p2962
sg15
g30
sg17
VMaster Bedroom
p2963
sg19
g32
sg21
V5b98dc75bf30fa668820446a
p2964
sg23
VRestoration Hardware
p2965
sbsI358
(iasset
Asset
p2966
(dp2967
g3
I1250
sg4
(dp2968
g6
F1.58
sg7
F1.58
sg8
F1.58
ssg9
VRUSTIC
p2969
sg11
g12
sg13
VRECLAIMED RUSSIAN OAK PARSONS CUBE-GREY
p2970
sg15
g30
sg17
VMaster Bedroom
p2971
sg19
g32
sg21
V5b98dbbabf30fa6688204469
p2972
sg23
VRestoration Hardware
p2973
sbsI359
(iasset
Asset
p2974
(dp2975
g3
I1250
sg4
(dp2976
g6
F1.58
sg7
F1.58
sg8
F1.58
ssg9
VIndustrial
p2977
sg11
g12
sg13
VRECLAIMED RUSSIAN OAK PARSONS CUBE
p2978
sg15
g30
sg17
VMaster Bedroom
p2979
sg19
g32
sg21
V5b98da2fbf30fa6688204468
p2980
sg23
VRestoration Hardware
p2981
sbsI360
(iasset
Asset
p2982
(dp2983
g3
I41
sg4
(dp2984
g6
F1.5
sg7
F0.06
sg8
F1.5
ssg9
VIndustrial
p2985
sg11
g225
sg13
VVintage Motorcycles Canvas
p2986
sg15
g502
sg17
VKids Room
p2987
sg19
Vtransport art panels
p2988
sg21
V5b98be11bf30fa66882043d5
p2989
sg23
VWayfair
p2990
sbsI361
(iasset
Asset
p2991
(dp2992
g3
I680
sg4
(dp2993
g6
F5.52
sg7
F7.12
sg8
F4.41
ssg9
VIndustrial
p2994
sg11
g12
sg13
VMcville Panel Bed
p2995
sg15
g16
sg17
VKids Room
p2996
sg19
g20
sg21
V5b98bc2ebf30fa66882043d4
p2997
sg23
VWayfair
p2998
sbsI362
(iasset
Asset
p2999
(dp3000
g3
F135.81
sg4
(dp3001
g6
F1.71
sg7
F1.71
sg8
F1.45
ssg9
VTRANSITIONAL
p3002
sg11
g57
sg13
VTadwick 3-Light Pendant
p3003
sg15
g59
sg17
VLiving Room
p3004
sg19
g787
sg21
V5b97c2dabf30fa668820437e
p3005
sg23
VWayfair
p3006
sbsI363
(iasset
Asset
p3007
(dp3008
g3
I168
sg4
(dp3009
g6
F0.33
sg7
F0.33
sg8
F4.1875
ssg9
VModern
p3010
sg11
g57
sg13
VImogen 1-Light Cylinder Pendant
p3011
sg15
g59
sg17
VLiving Room
p3012
sg19
g787
sg21
V5b97badcbf30fa6688204375
p3013
sg23
VWayfair
p3014
sbsI364
(iasset
Asset
p3015
(dp3016
g3
F279.99
sg4
(dp3017
g6
F1.41
sg7
F1.41
sg8
I4
ssg9
VScandinavian
p3018
sg11
g57
sg13
VChristena 3-Light Pendant
p3019
sg15
g59
sg17
VLiving Room
p3020
sg19
g787
sg21
V5b97b5a9bf30fa6688204370
p3021
sg23
VWayfair
p3022
sbsI365
(iasset
Asset
p3023
(dp3024
g3
I124
sg4
(dp3025
g6
F1.5
sg7
F1.75
sg8
F2.83
ssg9
VIndustrial
p3026
sg11
g12
sg13
VIndustrial Side Chair
p3027
sg15
g121
sg17
VKids Room
p3028
sg19
VCafe Chairs
p3029
sg21
V5b97b560bf30fa668820436f
p3030
sg23
VWayfair
p3031
sbsI366
(iasset
Asset
p3032
(dp3033
g3
F61.99
sg4
(dp3034
g6
F0.9167
sg7
F0.9167
sg8
I2
ssg9
VModern
p3035
sg11
g57
sg13
VAbaokoro 1-Light Dome Pendant
p3036
sg15
g59
sg17
VLiving Room
p3037
sg19
g787
sg21
V5b97b1f4bf30fa668820436e
p3038
sg23
VWayfair
p3039
sbsI367
(iasset
Asset
p3040
(dp3041
g3
F45.99
sg4
(dp3042
g6
F0.67
sg7
F0.67
sg8
F1.29
ssg9
VScandinavian
p3043
sg11
g57
sg13
VAbdallah 1-Light Geometric Pendant
p3044
sg15
g59
sg17
VLiving Room
p3045
sg19
g787
sg21
V5b97abeebf30fa668820436d
p3046
sg23
VWayfair
p3047
sbsI368
(iasset
Asset
p3048
(dp3049
g3
F75.99
sg4
(dp3050
g6
F1.5
sg7
F1.5
sg8
F1.75
ssg9
VIndustrial
p3051
sg11
g57
sg13
VIlgaz 1-Light Dome Pendant
p3052
sg15
g59
sg17
VLiving Room
p3053
sg19
g787
sg21
V5b97a67ebf30fa668820436c
p3054
sg23
VWayfair
p3055
sbsI369
(iasset
Asset
p3056
(dp3057
g3
I104
sg4
(dp3058
g6
I4
sg7
I4
sg8
F2.8
ssg9
VIndustrial
p3059
sg11
g12
sg13
VFuf Bean Bag
p3060
sg15
g121
sg17
VKids Room
p3061
sg19
g2381
sg21
V5b979fdbbf30fa6688204361
p3062
sg23
VWayfair
p3063
sbsI370
(iasset
Asset
p3064
(dp3065
g3
I30
sg4
(dp3066
g6
F0.83
sg7
F0.83
sg8
F1.41
ssg9
VIndustrial
p3067
sg11
g214
sg13
VMetal Amillary Sculpture
p3068
sg15
g711
sg17
VLiving and Dining Room
p3069
sg19
g713
sg21
V5b979cbb6af7b6122eceee14
p3070
sg23
VWayfair
p3071
sbsI371
(iasset
Asset
p3072
(dp3073
g3
I40
sg4
(dp3074
g6
F1.5
sg7
F0.06
sg8
F2.16
ssg9
VIndustrial
p3075
sg11
g225
sg13
VHarley Motorcycle Canvas
p3076
sg15
g502
sg17
VKids Room
p3077
sg19
g2988
sg21
V5b9797e76af7b6122eceee13
p3078
sg23
VWayfair
p3079
sbsI372
(iasset
Asset
p3080
(dp3081
g3
I108
sg4
(dp3082
g6
F1.33
sg7
F0.08
sg8
F1.66
ssg9
VIndustrial
p3083
sg11
g225
sg13
VTin Gears Art
p3084
sg15
g502
sg17
VKids Room
p3085
sg19
g2988
sg21
V5b9796646af7b6122eceee12
p3086
sg23
VWayfair
p3087
sbsI373
(iasset
Asset
p3088
(dp3089
g3
I790
sg4
(dp3090
g6
F5.91
sg7
F0.25
sg8
I2
ssg9
VIndustrial
p3091
sg11
g57
sg13
VSteampunk Wall light
p3092
sg15
g59
sg17
VKids Room
p3093
sg19
g2406
sg21
V5b97948b6af7b6122eceee11
p3094
sg23
VWayfair
p3095
sbsI374
(iasset
Asset
p3096
(dp3097
g3
I440
sg4
(dp3098
g6
F3.33
sg7
F1.5
sg8
F5.25
ssg9
VIndustrial
p3099
sg11
g12
sg13
VEtagere Bookcase
p3100
sg15
g165
sg17
VKids Room
p3101
sg19
g267
sg21
V5b9793f16af7b6122eceee10
p3102
sg23
VWayfair
p3103
sbsI375
(iasset
Asset
p3104
(dp3105
g3
I378
sg4
(dp3106
g6
I5
sg7
F2.33
sg8
F2.5
ssg9
VIndustrial
p3107
sg11
g12
sg13
VRocklin Writing Desk
p3108
sg15
g30
sg17
VKids Room
p3109
sg19
g2338
sg21
V5b97933c6af7b6122eceee0f
p3110
sg23
VWayfair
p3111
sbsI376
(iasset
Asset
p3112
(dp3113
g3
I45
sg4
(dp3114
g6
F1.16
sg7
F0.16
sg8
F1.58
ssg9
VIndustrial
p3115
sg11
g225
sg13
VChevy Truck Canvas
p3116
sg15
g502
sg17
VKids Room
p3117
sg19
g2988
sg21
V5b9791736af7b6122eceee0e
p3118
sg23
VWayfair
p3119
sbsI377
(iasset
Asset
p3120
(dp3121
g3
F151.99
sg4
(dp3122
g6
F1.33
sg7
F1.33
sg8
F1.81
ssg9
VRUSTIC
p3123
sg11
g57
sg13
VRussell Farm 3-Light Bowl Pendant
p3124
sg15
g59
sg17
VLiving Room
p3125
sg19
g787
sg21
V5b97902c6af7b6122eceee0d
p3126
sg23
VWayfair
p3127
sbsI378
(iasset
Asset
p3128
(dp3129
g3
I323
sg4
(dp3130
g6
I6
sg7
I4
sg8
F0.1
ssg9
VModern
p3131
sg11
g236
sg13
VSolid Wool And Viscose Blue
p3132
sg15
g411
sg17
VLiving Room
p3133
sg19
g670
sg21
V5b967694b7e2e139c4e4ec6a
p3134
sg23
VPepperfry
p3135
sbsI379
(iasset
Asset
p3136
(dp3137
g3
I323
sg4
(dp3138
g6
I4
sg7
I6
sg8
F0.1
ssg9
VECCENTRIC / ECLECTIC
p3139
sg11
g236
sg13
VSolid Wool And Viscose
p3140
sg15
g411
sg17
VLiving Room
p3141
sg19
g670
sg21
V5b96757eb7e2e139c4e4ec33
p3142
sg23
VPepperfry
p3143
sbsI380
(iasset
Asset
p3144
(dp3145
g3
I0
sg4
(dp3146
g6
I6
sg7
F2.33
sg8
F3.5
ssg9
VIndustrial
p3147
sg11
g12
sg13
Vindustrial sink unit
p3148
sg15
g165
sg17
VDining Room
p3149
sg19
g167
sg21
V5b966debb7e2e139c4e4ec02
p3150
sg23
VHomefuly
p3151
sbsI381
(iasset
Asset
p3152
(dp3153
g3
I31
sg4
(dp3154
g6
F3.75
sg7
F3.75
sg8
F4.9
ssg9
VIndustrial
p3155
sg11
g57
sg13
VGrey Iron Filament Lamp by Tezerac
p3156
sg15
g59
sg17
VLiving Room
p3157
sg19
g787
sg21
V5b966dc6b7e2e139c4e4ec01
p3158
sg23
VPepperfry
p3159
sbsI382
(iasset
Asset
p3160
(dp3161
g3
I86
sg4
(dp3162
g6
I4
sg7
F0.1
sg8
I4
ssg9
VModern
p3163
sg11
g236
sg13
VPORTO DANUBE
p3164
sg15
g2832
sg17
VKids Room
p3165
sg19
VBlinds & Shades
p3166
sg21
V5b966329b7e2e139c4e4ebf3
p3167
sg23
VDDECOR
p3168
sbsI383
(iasset
Asset
p3169
(dp3170
g3
I206
sg4
(dp3171
g6
I5
sg7
I8
sg8
F0.01
ssg9
VModern
p3172
sg11
g236
sg13
VAbstract Pattern Wool Blue
p3173
sg15
g411
sg17
VLiving Room
p3174
sg19
g670
sg21
V5b966124b7e2e139c4e4ebf2
p3175
sg23
VPepperfry
p3176
sbsI384
(iasset
Asset
p3177
(dp3178
g3
I242
sg4
(dp3179
g6
I6
sg7
I9
sg8
F0.01
ssg9
VModern
p3180
sg11
g236
sg13
VGeometric Pattern Polyester Grey
p3181
sg15
g411
sg17
VLiving Room
p3182
sg19
g670
sg21
V5b966032b7e2e139c4e4ebf1
p3183
sg23
VPepperfry
p3184
sbsI385
(iasset
Asset
p3185
(dp3186
g3
I71
sg4
(dp3187
g6
I1
sg7
I1
sg8
I5
ssg9
VScandinavian
p3188
sg11
g57
sg13
VPendant Lamp in Black & Gold
p3189
sg15
g59
sg17
VMaster Bedroom
p3190
sg19
g787
sg21
V5b9657c0b7e2e139c4e4ebe5
p3191
sg23
VPepperfry
p3192
sbsI386
(iasset
Asset
p3193
(dp3194
g3
I192
sg4
(dp3195
g6
F6.08
sg7
F6.67
sg8
I3
ssg9
VIndian Contemporary
p3196
sg11
g12
sg13
VKuruma King Size Storage Bed
p3197
sg15
g16
sg17
VMaster Bedroom
p3198
sg19
VKing Sized Beds
p3199
sg21
V5b965169b7e2e139c4e4ebb2
p3200
sg23
VPepperfry
p3201
sbsI387
(iasset
Asset
p3202
(dp3203
g3
F82.99
sg4
(dp3204
g6
F0.42
sg7
F0.42
sg8
I5
ssg9
VModern
p3205
sg11
g57
sg13
VRussell Farm 1-Light Cone Pendant
p3206
sg15
g59
sg17
VLiving Room
p3207
sg19
g787
sg21
V5b93b33c038573191129c47d
p3208
sg23
VWayfair
p3209
sbsI388
(iasset
Asset
p3210
(dp3211
g3
I93
sg4
(dp3212
g6
F0.58
sg7
F0.58
sg8
F1.27
ssg9
VModern
p3213
sg11
g57
sg13
VHirst 1-Light Drum Pendant
p3214
sg15
g59
sg17
VLiving Room
p3215
sg19
g787
sg21
V5b93b078038573191129c47c
p3216
sg23
VWayfair
p3217
sbsI389
(iasset
Asset
p3218
(dp3219
g3
F98.11
sg4
(dp3220
g6
F0.5
sg7
F0.5
sg8
I5
ssg9
VCOASTAL CASUAL
p3221
sg11
g57
sg13
VLight Cone Pendant
p3222
sg15
g59
sg17
VLiving Room
p3223
sg19
g787
sg21
V5b93adcf038573191129c47b
p3224
sg23
VWayfair
p3225
sbsI390
(iasset
Asset
p3226
(dp3227
g3
F369.99
sg4
(dp3228
g6
F3.625
sg7
F0.167
sg8
I5
ssg9
VModern
p3229
sg11
g57
sg13
VRectangle Pendant Black
p3230
sg15
g59
sg17
VLiving Room
p3231
sg19
g787
sg21
V5b93aab4038573191129c47a
p3232
sg23
VWayfair
p3233
sbsI391
(iasset
Asset
p3234
(dp3235
g3
F369.99
sg4
(dp3236
g6
F3.64
sg7
F0.167
sg8
I11
ssg9
VModern
p3237
sg11
g57
sg13
VRectangle Pendant
p3238
sg15
g59
sg17
VLiving Room
p3239
sg19
g787
sg21
V5b93a7ce45cad06ea5ad756c
p3240
sg23
VWayfair
p3241
sbsI392
(iasset
Asset
p3242
(dp3243
g3
F999.99
sg4
(dp3244
g6
F1.5
sg7
F1.5
sg8
F1.77
ssg9
VScandinavian
p3245
sg11
g57
sg13
VNowayton LED Pendant
p3246
sg15
g59
sg17
VLiving Room
p3247
sg19
g787
sg21
V5b93a4ca45cad06ea5ad7559
p3248
sg23
VWayfair
p3249
sbsI393
(iasset
Asset
p3250
(dp3251
g3
F309.99
sg4
(dp3252
g6
F1.96
sg7
F1.96
sg8
F1.96
ssg9
VModern
p3253
sg11
g57
sg13
VKey West 1-Light LED Pendant
p3254
sg15
g59
sg17
VLiving Room
p3255
sg19
g787
sg21
V5b93a12a45cad06ea5ad7555
p3256
sg23
VWayfair
p3257
sbsI394
(iasset
Asset
p3258
(dp3259
g3
F266.99
sg4
(dp3260
g6
F2.08
sg7
F2.08
sg8
F2.08
ssg9
VIndustrial
p3261
sg11
g57
sg13
VSteubenville Inverted Pendant
p3262
sg15
g59
sg17
VLiving Room
p3263
sg19
g787
sg21
V5b939ee945cad06ea5ad7551
p3264
sg23
VWayfair
p3265
sbsI395
(iasset
Asset
p3266
(dp3267
g3
I1298
sg4
(dp3268
g6
F2.22
sg7
F2.22
sg8
F2.2
ssg9
VHollywood Regency
p3269
sg11
g12
sg13
VTete-A-Tete Chair
p3270
sg15
g121
sg17
VLiving Room
p3271
sg19
g361
sg21
V5b92620f8ee9813c204fc540
p3272
sg23
VWest Elm
p3273
sbsI396
(iasset
Asset
p3274
(dp3275
g3
I129
sg4
(dp3276
g6
F0.75
sg7
F0.41
sg8
F1.5
ssg9
VHollywood Regency
p3277
sg11
g57
sg13
VPelle Sconce
p3278
sg15
g59
sg17
VLiving Room
p3279
sg19
g2406
sg21
V5b925dc18ee9813c204fc53f
p3280
sg23
VWest Elm
p3281
sbsI397
(iasset
Asset
p3282
(dp3283
g3
F829.99
sg4
(dp3284
g6
I5
sg7
F1.58
sg8
F3.17
ssg9
VHollywood Regency
p3285
sg11
g12
sg13
VKeenum 4 Door Cabinet
p3286
sg15
g165
sg17
VLiving Room
p3287
sg19
g167
sg21
V5b91bc090f659a66bf4fad5c
p3288
sg23
VWayfair
p3289
sbsI398
(iasset
Asset
p3290
(dp3291
g3
I0
sg4
(dp3292
g6
I1
sg7
I1
sg8
I5
ssg9
VHollywood Regency
p3293
sg11
g214
sg13
VHorse
p3294
sg15
g711
sg17
VGuest Room
p3295
sg19
VANIMAL FIGURINES
p3296
sg21
V5b91af200f659a66bf4fad2c
p3297
sg23
VHomefuly
p3298
sbsI399
(iasset
Asset
p3299
(dp3300
g3
F7.999692307692308
sg4
(dp3301
g6
F2.18
sg7
F1.833
sg8
F3.5
ssg9
VHollywood Regency
p3302
sg11
g12
sg13
VBainbridge Side Chair
p3303
sg15
g307
sg17
VDining Room
p3304
sg19
g336
sg21
V5b91aa500f659a66bf4fad02
p3305
sg23
VWayfair
p3306
sbsI400
(iasset
Asset
p3307
(dp3308
g3
I4995
sg4
(dp3309
g6
F3.33
sg7
I7
sg8
F2.5
ssg9
VHollywood Regency
p3310
sg11
g12
sg13
VDALTON RECTANGULAR DINING TABLE
p3311
sg15
g307
sg17
VDining Room
p3312
sg19
g379
sg21
V5b91a6490f659a66bf4facfc
p3313
sg23
VRestoration Hardware
p3314
sbsI401
(iasset
Asset
p3315
(dp3316
g3
F101.33
sg4
(dp3317
g6
F1.31
sg7
F1.31
sg8
F1.7
ssg9
VHollywood Regency
p3318
sg11
g214
sg13
VThe Frankfurt Deer Head
p3319
sg15
g711
sg17
VLiving Room
p3320
sg19
g3296
sg21
V5b919c3c0f659a66bf4facdd
p3321
sg23
VWayfair
p3322
sbsI402
(iasset
Asset
p3323
(dp3324
g3
I419
sg4
(dp3325
g6
F0.375
sg7
F0.375
sg8
F1.7
ssg9
VHollywood Regency
p3326
sg11
g57
sg13
VAQUITAINE SCONCE
p3327
sg15
g59
sg17
VMaster Bedroom
p3328
sg19
g787
sg21
V5b9196e00f659a66bf4facdb
p3329
sg23
VRestoration Hardware
p3330
sbsI403
(iasset
Asset
p3331
(dp3332
g3
F1649.99
sg4
(dp3333
g6
F7.91
sg7
F3.3
sg8
F2.54
ssg9
VHollywood Regency
p3334
sg11
g12
sg13
VTanisha Leather Chesterfield Sofa
p3335
sg15
g325
sg17
VLiving Room
p3336
sg19
g746
sg21
V5b91939f0f659a66bf4faccc
p3337
sg23
VWayfair
p3338
sbsI404
(iasset
Asset
p3339
(dp3340
g3
I1299
sg4
(dp3341
g6
F4.83
sg7
F1.5
sg8
F2.67
ssg9
VHollywood Regency
p3342
sg11
g12
sg13
VMalone Campaign 6-Drawer Dresser - Walnut
p3343
sg15
g48
sg17
VMaster Bedroom
p3344
sg19
g50
sg21
V5b9190730f659a66bf4facb2
p3345
sg23
VWest Elm
p3346
sbsI405
(iasset
Asset
p3347
(dp3348
g3
I320
sg4
(dp3349
g6
F1.67
sg7
F1.5
sg8
F2.167
ssg9
VHollywood Regency
p3350
sg11
g12
sg13
VMalone Campaign Nightstand - Walnut
p3351
sg15
g30
sg17
VMaster Bedroom
p3352
sg19
g32
sg21
V5b918c480f659a66bf4faca7
p3353
sg23
VWest Elm
p3354
sbsI406
(iasset
Asset
p3355
(dp3356
g3
I1200
sg4
(dp3357
g6
F5.5
sg7
F7.08
sg8
F4.67
ssg9
VHollywood Regency
p3358
sg11
g12
sg13
VAlexa Bed - Black
p3359
sg15
g16
sg17
VMaster Bedroom
p3360
sg19
g20
sg21
V5b9188520f659a66bf4faca6
p3361
sg23
VWest Elm
p3362
sbsI407
(iasset
Asset
p3363
(dp3364
g3
I0
sg4
(dp3365
g6
I3
sg7
F0.1
sg8
I4
ssg9
VCOASTAL CASUAL
p3366
sg11
g225
sg13
VNautical
p3367
sg15
g2262
sg17
VLiving Room
p3368
sg19
g2264
sg21
V5b9172e90f659a66bf4fac0e
p3369
sg23
VHomefuly
p3370
sbsI408
(iasset
Asset
p3371
(dp3372
g3
I0
sg4
(dp3373
g6
I7
sg7
F0.1
sg8
I5
ssg9
VIndustrial
p3374
sg11
g225
sg13
VWorld Map Decor
p3375
sg15
g2262
sg17
VStudio
p3376
sg19
g2264
sg21
V5b916f090f659a66bf4fac0d
p3377
sg23
VHomefuly
p3378
sbsI409
(iasset
Asset
p3379
(dp3380
g3
I106
sg4
(dp3381
g6
F2.5
sg7
F0.66
sg8
F5.5
ssg9
VIndustrial
p3382
sg11
g12
sg13
VTie Grid Rack
p3383
sg15
g165
sg17
VLiving and Dining Room
p3384
sg19
g167
sg21
V5b9146d40f659a66bf4fac03
p3385
sg23
VWayfair
p3386
sbsI410
(iasset
Asset
p3387
(dp3388
g3
I1590
sg4
(dp3389
g6
I6
sg7
F2.33
sg8
F3.5
ssg9
VIndustrial
p3390
sg11
g12
sg13
VPremium Bar Cabinet
p3391
sg15
g30
sg17
VLiving and Dining Room
p3392
sg19
g2578
sg21
V5b913ff2e828905f7344f3fc
p3393
sg23
VWayfair
p3394
sbsI411
(iasset
Asset
p3395
(dp3396
g3
F211.99
sg4
(dp3397
g6
F2.91
sg7
F2.91
sg8
F1.54
ssg9
VHollywood Regency
p3398
sg11
g12
sg13
VPickett Storage Ottoman
p3399
sg15
g121
sg17
VLiving Room
p3400
sg19
VOttomans
p3401
sg21
V5b913bbcccebf615ca65fb86
p3402
sg23
VWayfair
p3403
sbsI412
(iasset
Asset
p3404
(dp3405
g3
F369.99
sg4
(dp3406
g6
F3.85
sg7
F2.33
sg8
F1.5
ssg9
VModern
p3407
sg11
g12
sg13
VDumbarton Storage Ottoman Blue Grey
p3408
sg15
g121
sg17
VLiving Room
p3409
sg19
g3401
sg21
V5b91386cccebf615ca65fb81
p3410
sg23
VWayfair
p3411
sbsI413
(iasset
Asset
p3412
(dp3413
g3
F38.98
sg4
(dp3414
g6
F0.95
sg7
F0.95
sg8
F1.167
ssg9
VCOASTAL CASUAL
p3415
sg11
g214
sg13
VCara Composite Pot Planter
p3416
sg15
g2170
sg17
VLiving Room
p3417
sg19
g2172
sg21
V5b9133c0ccebf615ca65fb7f
p3418
sg23
VWayfair
p3419
sbsI414
(iasset
Asset
p3420
(dp3421
g3
I367
sg4
(dp3422
g6
F2.5
sg7
F2.5
sg8
F3.33
ssg9
VIndustrial
p3423
sg11
g12
sg13
VGrigor Pub Table
p3424
sg15
g30
sg17
VLiving and Dining Room
p3425
sg19
g2578
sg21
V5b912f9fccebf615ca65fb79
p3426
sg23
VWayfair
p3427
sbsI415
(iasset
Asset
p3428
(dp3429
g3
F31.99
sg4
(dp3430
g6
F0.75
sg7
F0.75
sg8
F0.33
ssg9
VCOASTAL CASUAL
p3431
sg11
g214
sg13
VAlexus Floral Pot Planter
p3432
sg15
g2170
sg17
VLiving Room
p3433
sg19
g2172
sg21
V5b912f75ccebf615ca65fb78
p3434
sg23
VWayfair
p3435
sbsI416
(iasset
Asset
p3436
(dp3437
g3
F90.99
sg4
(dp3438
g6
F3.33
sg7
F0.0625
sg8
F2.167
ssg9
VCOASTAL CASUAL
p3439
sg11
g225
sg13
VSailboats at Sunrise Print
p3440
sg15
g227
sg17
VLiving Room
p3441
sg19
Vlandscape paintings
p3442
sg21
V5b912b34ccebf615ca65fb73
p3443
sg23
VJoss And Main
p3444
sbsI417
(iasset
Asset
p3445
(dp3446
g3
I122
sg4
(dp3447
g6
F1.41
sg7
F1.5
sg8
F3.91
ssg9
VIndustrial
p3448
sg11
g12
sg13
VSwivel Bar Stool
p3449
sg15
g121
sg17
VLiving and Dining Room
p3450
sg19
g1831
sg21
V5b912a55ccebf615ca65fb72
p3451
sg23
VWayfair
p3452
sbsI418
(iasset
Asset
p3453
(dp3454
g3
F91.99
sg4
(dp3455
g6
F3.33
sg7
F0.167
sg8
F2.5
ssg9
VCOASTAL CASUAL
p3456
sg11
g225
sg13
VQuiet Morning Canvas
p3457
sg15
g227
sg17
VLiving Room
p3458
sg19
g3442
sg21
V5b912a1cccebf615ca65fb71
p3459
sg23
VJoss And Main
p3460
sbsI419
(iasset
Asset
p3461
(dp3462
g3
I839
sg4
(dp3463
g6
F3.5
sg7
F3.33
sg8
F2.58
ssg9
VCOASTAL CASUAL
p3464
sg11
g12
sg13
VEliza Armchair
p3465
sg15
g121
sg17
VLiving Room
p3466
sg19
VArm Chairs
p3467
sg21
V5b912809ccebf615ca65fb70
p3468
sg23
VWayfair
p3469
sbsI420
(iasset
Asset
p3470
(dp3471
g3
I166
sg4
(dp3472
g6
F1.55
sg7
F1.55
sg8
F2.52
ssg9
VIndustrial
p3473
sg11
g12
sg13
VEmpire Bar Stool
p3474
sg15
g121
sg17
VDining Room
p3475
sg19
g1831
sg21
V5b9127d3ccebf615ca65fb6f
p3476
sg23
VWayfair
p3477
sbsI421
(iasset
Asset
p3478
(dp3479
g3
I123
sg4
(dp3480
g6
F1.66
sg7
F1.66
sg8
F1.85
ssg9
VIndustrial
p3481
sg11
g57
sg13
VHankinson Pendant
p3482
sg15
g59
sg17
VLiving and Dining Room
p3483
sg19
g787
sg21
V5b90fe3b88e4f208f93e034e
p3484
sg23
VWayfair
p3485
sbsI422
(iasset
Asset
p3486
(dp3487
g3
F70.21
sg4
(dp3488
g6
F0.85
sg7
F0.85
sg8
F1.35
ssg9
VCOASTAL CASUAL
p3489
sg11
g214
sg13
VParisian Bottle Glass Table Vase
p3490
sg15
g2220
sg17
VLiving Room
p3491
sg19
g2222
sg21
V5b90f8b588e4f208f93e0335
p3492
sg23
VWayfair
p3493
sbsI423
(iasset
Asset
p3494
(dp3495
g3
F268.99
sg4
(dp3496
g6
F2.33
sg7
F2.33
sg8
I2
ssg9
VHollywood Regency
p3497
sg11
g57
sg13
VDevana 6-Light Candle Style Chandelier
p3498
sg15
g59
sg17
VLiving Room
p3499
sg19
g61
sg21
V5b90efdc88e4f208f93e02fe
p3500
sg23
VWayfair
p3501
sbsI424
(iasset
Asset
p3502
(dp3503
g3
I10
sg4
(dp3504
g6
F4.25
sg7
F0.04
sg8
F5.25
ssg9
VMINIMALIST
p3505
sg11
g236
sg13
VCrushed Sheer curtain
p3506
sg15
g2832
sg17
VLiving Room
p3507
sg19
VWindow Curtains
p3508
sg21
V5b90ecda88e4f208f93e02fd
p3509
sg23
VWayfair
p3510
sbsI425
(iasset
Asset
p3511
(dp3512
g3
F279.99
sg4
(dp3513
g6
F2.83
sg7
F2.83
sg8
F3.125
ssg9
VHollywood Regency
p3514
sg11
g57
sg13
VAlexandra 9-Light Chandelier
p3515
sg15
g59
sg17
VLiving Room
p3516
sg19
g61
sg21
V5b90eb8788e4f208f93e02fc
p3517
sg23
VWayfair
p3518
sbsI426
(iasset
Asset
p3519
(dp3520
g3
F261.8
sg4
(dp3521
g6
F2.25
sg7
F0.104
sg8
I4
ssg9
VHollywood Regency
p3522
sg11
g214
sg13
VFarah Accent Mirror
p3523
sg15
g216
sg17
VGuest Room
p3524
sg19
g218
sg21
V5b90e80488e4f208f93e02fb
p3525
sg23
VWayfair
p3526
sbsI427
(iasset
Asset
p3527
(dp3528
g3
F162.99
sg4
(dp3529
g6
I3
sg7
F0.125
sg8
I3
ssg9
VHollywood Regency
p3530
sg11
g214
sg13
VJosephson Accent Mirror
p3531
sg15
g216
sg17
VLiving Room
p3532
sg19
g218
sg21
V5b90e38788e4f208f93e02fa
p3533
sg23
VWayfair
p3534
sbsI428
(iasset
Asset
p3535
(dp3536
g3
I670
sg4
(dp3537
g6
F5.24
sg7
F1.47
sg8
F2.42
ssg9
VMINIMALIST
p3538
sg11
g12
sg13
VDuncannon Desk
p3539
sg15
g30
sg17
VHome Office
p3540
sg19
g2338
sg21
V5b90dcc588e4f208f93e02f9
p3541
sg23
VJoss And Main
p3542
sbsI429
(iasset
Asset
p3543
(dp3544
g3
F150.99
sg4
(dp3545
g6
F1.25
sg7
F1.25
sg8
F2.33
ssg9
VHollywood Regency
p3546
sg11
g57
sg13
VCarroll 28 Standard Table Lamp
p3547
sg15
g86
sg17
VGuest Room
p3548
sg19
g149
sg21
V5b90dc5d88e4f208f93e02f8
p3549
sg23
VWayfair
p3550
sbsI430
(iasset
Asset
p3551
(dp3552
g3
F69.495
sg4
(dp3553
g6
F1.167
sg7
F1.167
sg8
I2
ssg9
VCOASTAL CASUAL
p3554
sg11
g57
sg13
VCourtney Table Lamp Marine Blue
p3555
sg15
g86
sg17
VKids Room
p3556
sg19
g149
sg21
V5b90d5ff3334755cf7ea9dd8
p3557
sg23
VWayfair
p3558
sbsI431
(iasset
Asset
p3559
(dp3560
g3
F141.99
sg4
(dp3561
g6
F1.33
sg7
F1.33
sg8
F2.42
ssg9
VMid Century
p3562
sg11
g57
sg13
VHarrisville Quatrefoil
p3563
sg15
g86
sg17
VGuest Room
p3564
sg19
g149
sg21
V5b90342c29de4d0160214976
p3565
sg23
VWayfair
p3566
sbsI432
(iasset
Asset
p3567
(dp3568
g3
F51.99
sg4
(dp3569
g6
F1.33
sg7
F1.33
sg8
F2.7
ssg9
VMid Century
p3570
sg11
g57
sg13
VCarr Hall 32.5 Table Lamp
p3571
sg15
g86
sg17
VGuest Room
p3572
sg19
g149
sg21
V5b90320629de4d0160214975
p3573
sg23
VWayfair
p3574
sbsI433
(iasset
Asset
p3575
(dp3576
g3
F50.99
sg4
(dp3577
g6
F1.33
sg7
F1.33
sg8
F2.54
ssg9
VMid Century
p3578
sg11
g57
sg13
VPortchester 30.5 Table Lamp
p3579
sg15
g86
sg17
VMaster Bedroom
p3580
sg19
g149
sg21
V5b9030a229de4d0160214973
p3581
sg23
VWayfair
p3582
sbsI434
(iasset
Asset
p3583
(dp3584
g3
F149.99
sg4
(dp3585
g6
F1.33
sg7
F1.33
sg8
F2.21
ssg9
VIndustrial
p3586
sg11
g57
sg13
VGrandin 26.25 Table Lamp
p3587
sg15
g86
sg17
VMaster Bedroom
p3588
sg19
g149
sg21
V5b902eca29de4d0160214972
p3589
sg23
VWayfair
p3590
sbsI435
(iasset
Asset
p3591
(dp3592
g3
F119.99
sg4
(dp3593
g6
F1.33
sg7
F1.33
sg8
F2.46
ssg9
VCOASTAL CASUAL
p3594
sg11
g57
sg13
VPatroclus Maybury French Blue
p3595
sg15
g86
sg17
VMaster Bedroom
p3596
sg19
g149
sg21
V5b902cdb29de4d0160214971
p3597
sg23
VWayfair
p3598
sbsI436
(iasset
Asset
p3599
(dp3600
g3
F108.47
sg4
(dp3601
g6
F1.33
sg7
F1.33
sg8
F2.45
ssg9
VMid Century
p3602
sg11
g57
sg13
VPatroclus Maybury 29.5 Table Lamp
p3603
sg15
g86
sg17
VMaster Bedroom
p3604
sg19
g149
sg21
V5b902bac29de4d0160214970
p3605
sg23
VWayfair
p3606
sbsI437
(iasset
Asset
p3607
(dp3608
g3
F94.99
sg4
(dp3609
g6
F1.167
sg7
F1.167
sg8
F1.79
ssg9
VCOASTAL CASUAL
p3610
sg11
g57
sg13
VRoanoke Table Lamp
p3611
sg15
g86
sg17
VMaster Bedroom
p3612
sg19
g149
sg21
V5b90299b29de4d016021496f
p3613
sg23
VWayfair
p3614
sbsI438
(iasset
Asset
p3615
(dp3616
g3
F133.99
sg4
(dp3617
g6
F1.33
sg7
F1.33
sg8
F2.22
ssg9
VTraditional
p3618
sg11
g57
sg13
VRyan Glass Table Lamp
p3619
sg15
g86
sg17
VLiving Room
p3620
sg19
g149
sg21
V5b90287a29de4d016021496e
p3621
sg23
VWayfair
p3622
sbsI439
(iasset
Asset
p3623
(dp3624
g3
F233.99
sg4
(dp3625
g6
F1.04
sg7
F1.42
sg8
F2.625
ssg9
VCONTEMPORARY
p3626
sg11
g57
sg13
VWagner Table Lamp
p3627
sg15
g86
sg17
VLiving Room
p3628
sg19
g149
sg21
V5b90269e29de4d016021496d
p3629
sg23
VWayfair
p3630
sbsI440
(iasset
Asset
p3631
(dp3632
g3
F82.99
sg4
(dp3633
g6
I1
sg7
I1
sg8
F1.416
ssg9
VCOASTAL CASUAL
p3634
sg11
g57
sg13
VLa Merced 17 Table Lamp
p3635
sg15
g86
sg17
VLiving Room
p3636
sg19
g149
sg21
V5b90250a29de4d016021496c
p3637
sg23
VWayfair
p3638
sbsI441
(iasset
Asset
p3639
(dp3640
g3
F112.99
sg4
(dp3641
g6
F1.73
sg7
F1.73
sg8
F1.9
ssg9
VMid Century
p3642
sg11
g12
sg13
VAugust Mid-Back Desk Chair-Black
p3643
sg15
g121
sg17
VHome Office
p3644
sg19
g2347
sg21
V5b90227529de4d016021496b
p3645
sg23
VWayfair
p3646
sbsI442
(iasset
Asset
p3647
(dp3648
g3
F112.99
sg4
(dp3649
g6
F1.73
sg7
F1.73
sg8
F1.9
ssg9
VCOASTAL CASUAL
p3650
sg11
g12
sg13
VAugust Mid-Back Desk Chair
p3651
sg15
g121
sg17
VLiving Room
p3652
sg19
g2347
sg21
V5b90218329de4d0160214960
p3653
sg23
VWayfair
p3654
sbsI443
(iasset
Asset
p3655
(dp3656
g3
F165.99
sg4
(dp3657
g6
F3.67
sg7
F1.83
sg8
F1.67
ssg9
VCOASTAL CASUAL
p3658
sg11
g12
sg13
VSoule Coffee Table
p3659
sg15
g30
sg17
VLiving Room
p3660
sg19
g140
sg21
V5b901edf29de4d0160214952
p3661
sg23
VWayfair
p3662
sbsI444
(iasset
Asset
p3663
(dp3664
g3
F13.86
sg4
(dp3665
g6
F4.91
sg7
F0.1
sg8
I9
ssg9
VCOASTAL CASUAL
p3666
sg11
g236
sg13
VPocket Single Curtain Panel
p3667
sg15
g2832
sg17
VLiving Room
p3668
sg19
g2834
sg21
V5b901ccb092a6f5adbeae930
p3669
sg23
VWayfair
p3670
sbsI445
(iasset
Asset
p3671
(dp3672
g3
F654.72
sg4
(dp3673
g6
F3.33
sg7
F3.5
sg8
I3
ssg9
VCOASTAL CASUAL
p3674
sg11
g12
sg13
VLandry Armchair
p3675
sg15
g121
sg17
VLiving Room
p3676
sg19
g3467
sg21
V5b90174d092a6f5adbeae92e
p3677
sg23
VWayfair
p3678
sbsI446
(iasset
Asset
p3679
(dp3680
g3
F639.99
sg4
(dp3681
g6
I4
sg7
F1.17
sg8
F3.33
ssg9
VCOASTAL CASUAL
p3682
sg11
VAppliances
p3683
sg13
VChesterbrook Electric Fireplace
p3684
sg15
VRoom Heaters
p3685
sg17
VLiving Room
p3686
sg19
VFireplaces
p3687
sg21
V5b8fb7398361844a8682eca2
p3688
sg23
VJoss And Main
p3689
sbsI447
(iasset
Asset
p3690
(dp3691
g3
I0
sg4
(dp3692
g6
F8.31
sg7
F0.08
sg8
F13.69
ssg9
VCONTEMPORARY
p3693
sg11
g236
sg13
VCurtains
p3694
sg15
g2832
sg17
VLiving Room
p3695
sg19
g3508
sg21
V5b8fb41a8361844a8682eca1
p3696
sg23
VFlipkart
p3697
sbsI448
(iasset
Asset
p3698
(dp3699
g3
I36
sg4
(dp3700
g6
F2.66
sg7
F0.12
sg8
F2.66
ssg9
VModern
p3701
sg11
g225
sg13
VQuiet Moments Canvas
p3702
sg15
g502
sg17
VLiving Room
p3703
sg19
g652
sg21
V5b8f98bc509068058963e287
p3704
sg23
VWayfair
p3705
sbsI449
(iasset
Asset
p3706
(dp3707
g3
I78
sg4
(dp3708
g6
F2.5
sg7
F0.12
sg8
F2.5
ssg9
VMINIMALIST
p3709
sg11
g225
sg13
VMeeting Horses Canvas
p3710
sg15
g502
sg17
VLiving Room
p3711
sg19
g661
sg21
V5b8f964b509068058963e26a
p3712
sg23
VWayfair
p3713
sbsI450
(iasset
Asset
p3714
(dp3715
g3
I45
sg4
(dp3716
g6
F1.66
sg7
F0.08
sg8
F1.66
ssg9
VCONTEMPORARY
p3717
sg11
g225
sg13
VMandala Graphic Art
p3718
sg15
g502
sg17
VLiving Room
p3719
sg19
g504
sg21
V5b8f930e509068058963e268
p3720
sg23
VWayfair
p3721
sbsI451
(iasset
Asset
p3722
(dp3723
g3
F59.99
sg4
(dp3724
g6
F1.7
sg7
F0.2
sg8
F1.7
ssg9
VCOASTAL CASUAL
p3725
sg11
g236
sg13
VSudie Anchor Embroidered
p3726
sg15
g238
sg17
VKids Room
p3727
sg19
g513
sg21
V5b8ec245df80da76571cd5f3
p3728
sg23
VWayfair
p3729
sbsI452
(iasset
Asset
p3730
(dp3731
g3
F52.87
sg4
(dp3732
g6
I2
sg7
F0.01
sg8
I2
ssg9
VCOASTAL CASUAL
p3733
sg11
g225
sg13
VDecorative Wood Ship Wheel
p3734
sg15
g2262
sg17
VKids Room
p3735
sg19
g2264
sg21
V5b8ebc2edf80da76571cd5e4
p3736
sg23
VWayfair
p3737
sbsI453
(iasset
Asset
p3738
(dp3739
g3
F79.99
sg4
(dp3740
g6
I3
sg7
F0.17
sg8
I2
ssg9
VCOASTAL CASUAL
p3741
sg11
g225
sg13
VRounding the Mark Painting
p3742
sg15
g227
sg17
VKids Room
p3743
sg19
Vstill life paintings
p3744
sg21
V5b8eb4f8df80da76571cd5ce
p3745
sg23
VJoss And Main
p3746
sbsI454
(iasset
Asset
p3747
(dp3748
g3
I240
sg4
(dp3749
g6
F3.9
sg7
F0.95
sg8
F6.06
ssg9
VMINIMALIST
p3750
sg11
g12
sg13
VStandard Bookcase
p3751
sg15
g165
sg17
VHome Office
p3752
sg19
g267
sg21
V5b8e73f5b991e2171b205cec
p3753
sg23
VJoss And Main
p3754
sbsI455
(iasset
Asset
p3755
(dp3756
g3
F209.99
sg4
(dp3757
g6
I5
sg7
F7.41
sg8
F0.04
ssg9
VTRANSITIONAL
p3758
sg11
g236
sg13
VBerau Anchor Rug
p3759
sg15
g411
sg17
VKids Room
p3760
sg19
g670
sg21
V5b8e70e8b991e2171b205ce2
p3761
sg23
VWayfair
p3762
sbsI456
(iasset
Asset
p3763
(dp3764
g3
F519.99
sg4
(dp3765
g6
F3.25
sg7
F3.33
sg8
F2.58
ssg9
VModern
p3766
sg11
g12
sg13
VNewton Armchair
p3767
sg15
g121
sg17
VLiving Room
p3768
sg19
g3467
sg21
V5b8e6ddd89da3811861ee7e3
p3769
sg23
VWayfair
p3770
sbsI457
(iasset
Asset
p3771
(dp3772
g3
F326.24
sg4
(dp3773
g6
F4.45
sg7
F2.52
sg8
F2.96
ssg9
VModern
p3774
sg11
g12
sg13
VBabyletto Lolly White & Natural
p3775
sg15
g16
sg17
VKids Room
p3776
sg19
VSingle Beds
p3777
sg21
V5b8e68f204ab6b0999f3f0e9
p3778
sg23
VCrate And Barrel
p3779
sbsI458
(iasset
Asset
p3780
(dp3781
g3
I134
sg4
(dp3782
g6
F2.04
sg7
F1.97
sg8
F2.87
ssg9
VCONTEMPORARY
p3783
sg11
g12
sg13
VAliya Desk Chair
p3784
sg15
g121
sg17
VHome Office
p3785
sg19
g2347
sg21
V5b8e6517649f8802bee4a6ec
p3786
sg23
VJoss And Main
p3787
sbsI459
(iasset
Asset
p3788
(dp3789
g3
F409.99
sg4
(dp3790
g6
F2.79
sg7
F2.83
sg8
F2.96
ssg9
VTRANSITIONAL
p3791
sg11
g12
sg13
VBrougham Wingback Chair
p3792
sg15
g121
sg17
VLiving Room
p3793
sg19
VWing Chairs
p3794
sg21
V5b8e4da2beec1e2e2368fe3a
p3795
sg23
VWayfair
p3796
sbsI460
(iasset
Asset
p3797
(dp3798
g3
I64
sg4
(dp3799
g6
F3.41
sg7
F0.16
sg8
F2.91
ssg9
VCONTEMPORARY
p3800
sg11
g214
sg13
VMcnichols Mirror
p3801
sg15
g216
sg17
VMaster Bedroom
p3802
sg19
g218
sg21
V5b8e394ebeec1e2e2368fdcd
p3803
sg23
VWayfair
p3804
sbsI461
(iasset
Asset
p3805
(dp3806
g3
I0
sg4
(dp3807
g6
F1.31
sg7
F1.14
sg8
F1.11
ssg9
VCONTEMPORARY
p3808
sg11
g214
sg13
VBasket
p3809
sg15
g2220
sg17
VEntryway
p3810
sg19
g2222
sg21
V5b8e372cbeec1e2e2368fdb8
p3811
sg23
VFlipkart
p3812
sbsI462
(iasset
Asset
p3813
(dp3814
g3
I105
sg4
(dp3815
g6
F3.93
sg7
F0.75
sg8
F2.14
ssg9
VCONTEMPORARY
p3816
sg11
g12
sg13
VAbbottsmoor Console Table
p3817
sg15
g30
sg17
VEntryway
p3818
sg19
g105
sg21
V5b8e36a5beec1e2e2368fdb4
p3819
sg23
VWayfair
p3820
sbsI463
(iasset
Asset
p3821
(dp3822
g3
I0
sg4
(dp3823
g6
I2
sg7
F1.5
sg8
F2.5
ssg9
VModern
p3824
sg11
g12
sg13
VGreen_Study
p3825
sg15
g30
sg17
VKids Room
p3826
sg19
g2338
sg21
V5b8e286abeec1e2e2368fd49
p3827
sg23
VPepperfry
p3828
sbsI464
(iasset
Asset
p3829
(dp3830
g3
I0
sg4
(dp3831
g6
I8
sg7
F6.46
sg8
F5.98
ssg9
VModern
p3832
sg11
g12
sg13
VAlex Daisy Boston_Green
p3833
sg15
g16
sg17
VKids Room
p3834
sg19
VBunk Beds
p3835
sg21
V5b8e1c35beec1e2e2368fd07
p3836
sg23
VPepperfry
p3837
sbsI465
(iasset
Asset
p3838
(dp3839
g3
F179.29
sg4
(dp3840
g6
F1.92
sg7
F2.23
sg8
F2.91
ssg9
VMid Century
p3841
sg11
g12
sg13
VEckard Office Chair
p3842
sg15
g121
sg17
VHome Office
p3843
sg19
g2347
sg21
V5b8d2c0dbeec1e2e2368fc62
p3844
sg23
VWayfair
p3845
sbsI466
(iasset
Asset
p3846
(dp3847
g3
I349
sg4
(dp3848
g6
F4.67
sg7
F2.33
sg8
F2.5
ssg9
VModern
p3849
sg11
g12
sg13
VCross-Base Desk - Polished Nickel
p3850
sg15
g30
sg17
VHome Office
p3851
sg19
g2338
sg21
V5b8d1c3bbeec1e2e2368fb40
p3852
sg23
VWest Elm
p3853
sbsI467
(iasset
Asset
p3854
(dp3855
g3
F12.285
sg4
(dp3856
g6
F0.46
sg7
F0.46
sg8
F0.92
ssg9
VModern
p3857
sg11
g57
sg13
VAriana Table Lamp Black
p3858
sg15
g86
sg17
VMaster Bedroom
p3859
sg19
g149
sg21
V5b8cfaab41f99b1f342f54c1
p3860
sg23
VWayfair
p3861
sbsI468
(iasset
Asset
p3862
(dp3863
g3
I19
sg4
(dp3864
g6
F0.5
sg7
F0.5
sg8
I6
ssg9
VCONTEMPORARY
p3865
sg11
g57
sg13
VAluminium Hanging Light (short)
p3866
sg15
g59
sg17
VMaster Bedroom
p3867
sg19
g787
sg21
V5b8cd25041f99b1f342f5463
p3868
sg23
VPepperfry
p3869
sbsI469
(iasset
Asset
p3870
(dp3871
g3
I33
sg4
(dp3872
g6
F1.66
sg7
F0.33
sg8
F1.66
ssg9
VCONTEMPORARY
p3873
sg11
g236
sg13
VBreuer Throw Pillow
p3874
sg15
g238
sg17
VLiving Room
p3875
sg19
g513
sg21
V5b8a74411fc70034b7847a57
p3876
sg23
VWayfair
p3877
sbsI470
(iasset
Asset
p3878
(dp3879
g3
I19
sg4
(dp3880
g6
F0.5
sg7
F0.5
sg8
I5
ssg9
VCONTEMPORARY
p3881
sg11
g57
sg13
VAluminium Hanging Light
p3882
sg15
g59
sg17
VMaster Bedroom
p3883
sg19
g787
sg21
V5b8a6d131fc70034b7847a56
p3884
sg23
VPepperfry
p3885
sbsI471
(iasset
Asset
p3886
(dp3887
g3
I60
sg4
(dp3888
g6
F7.5
sg7
F9.5
sg8
F0.05
ssg9
VModern
p3889
sg11
g236
sg13
VHeilman Rug
p3890
sg15
g411
sg17
VLiving Room
p3891
sg19
g670
sg21
V5b8a63c01fc70034b7847a55
p3892
sg23
VWayfair
p3893
sbsI472
(iasset
Asset
p3894
(dp3895
g3
I64
sg4
(dp3896
g6
I8
sg7
I10
sg8
F0.05
ssg9
VModern
p3897
sg11
g236
sg13
VChenango Blue Rug
p3898
sg15
g411
sg17
VLiving Room
p3899
sg19
g670
sg21
V5b8a61851fc70034b7847a54
p3900
sg23
VWayfair
p3901
sbsI473
(iasset
Asset
p3902
(dp3903
g3
I185
sg4
(dp3904
g6
F2.41
sg7
F2.41
sg8
F1.54
ssg9
VCONTEMPORARY
p3905
sg11
g12
sg13
VCrane Cocktail Ottoman
p3906
sg15
g121
sg17
VLiving Room
p3907
sg19
g3401
sg21
V5b8a5d511fc70034b7847a53
p3908
sg23
VWayfair
p3909
sbsI474
(iasset
Asset
p3910
(dp3911
g3
F51.98
sg4
(dp3912
g6
F1.4
sg7
F0.5
sg8
F1.4
ssg9
VCONTEMPORARY
p3913
sg11
g236
sg13
VThrow Pillow
p3914
sg15
g238
sg17
VLiving Room
p3915
sg19
g240
sg21
V5b891dcae2ac545884ee256e
p3916
sg23
VWayfair
p3917
sbsI475
(iasset
Asset
p3918
(dp3919
g3
I26
sg4
(dp3920
g6
F1.5
sg7
F0.08
sg8
F1.5
ssg9
VCONTEMPORARY
p3921
sg11
g236
sg13
VJustus pillow cover
p3922
sg15
g238
sg17
VLiving Room
p3923
sg19
g687
sg21
V5b891972e2ac545884ee256d
p3924
sg23
VWayfair
p3925
sbsI476
(iasset
Asset
p3926
(dp3927
g3
I0
sg4
(dp3928
g6
I4
sg7
F0.32
sg8
F0.65
ssg9
VCONTEMPORARY
p3929
sg11
g57
sg13
VTrack lights
p3930
sg15
g59
sg17
VLiving Room
p3931
sg19
VCeiling Lights
p3932
sg21
V5b891230e2ac545884ee255a
p3933
sg23
VFlipkart
p3934
sbsI477
(iasset
Asset
p3935
(dp3936
g3
I18
sg4
(dp3937
g6
F7.83
sg7
I10
sg8
F0.05
ssg9
VCONTEMPORARY
p3938
sg11
g236
sg13
VPamplin Gray Area Rug
p3939
sg15
g411
sg17
VLiving Room
p3940
sg19
g670
sg21
V5b88e7017b64e5527c84344c
p3941
sg23
VWayfair
p3942
sbsI478
(iasset
Asset
p3943
(dp3944
g3
I146
sg4
(dp3945
g6
F1.57
sg7
F0.28
sg8
I7
ssg9
VCONTEMPORARY
p3946
sg11
g57
sg13
VSteel Tree Floor Lamp
p3947
sg15
g86
sg17
VLiving Room
p3948
sg19
g88
sg21
V5b88e28f7b64e5527c84343a
p3949
sg23
VWayfair
p3950
sbsI479
(iasset
Asset
p3951
(dp3952
g3
I111
sg4
(dp3953
g6
F1.01
sg7
F1.01
sg8
F1.44
ssg9
VCONTEMPORARY
p3954
sg11
g12
sg13
VDurwood End Table
p3955
sg15
g30
sg17
VLiving Room
p3956
sg19
g78
sg21
V5b87dfbadaa99f3e989bb278
p3957
sg23
VWayfair
p3958
sbsI480
(iasset
Asset
p3959
(dp3960
g3
I448
sg4
(dp3961
g6
F2.91
sg7
F2.91
sg8
I1
ssg9
VCONTEMPORARY
p3962
sg11
g12
sg13
VNorridge Coffee Table
p3963
sg15
g30
sg17
VLiving Room
p3964
sg19
g140
sg21
V5b87d91adaa99f3e989bb277
p3965
sg23
VWayfair
p3966
sbsI481
(iasset
Asset
p3967
(dp3968
g3
I506
sg4
(dp3969
g6
F2.81
sg7
F2.5
sg8
F3.58
ssg9
VCONTEMPORARY
p3970
sg11
g12
sg13
VSwivel Balloon Chair
p3971
sg15
g121
sg17
VLiving Room
p3972
sg19
g361
sg21
V5b87c70edaa99f3e989bb26a
p3973
sg23
VWayfair
p3974
sbsI482
(iasset
Asset
p3975
(dp3976
g3
I3595
sg4
(dp3977
g6
F3.33
sg7
F1.66
sg8
F7.08
ssg9
VMINIMALIST
p3978
sg11
g12
sg13
VGEOMETRIC DOUBLE-DOOR CABINET
p3979
sg15
g165
sg17
VDining Room
p3980
sg19
g2537
sg21
V5b861bf6d2024470fd8fa58b
p3981
sg23
VRestoration Hardware
p3982
sbsI483
(iasset
Asset
p3983
(dp3984
g3
I0
sg4
(dp3985
g6
I3
sg7
I1
sg8
F1.5
ssg9
VMINIMALIST
p3986
sg11
g12
sg13
Vneutral shelf
p3987
sg15
g165
sg17
VLiving Room
p3988
sg19
g267
sg21
V5b86151dd2024470fd8fa580
p3989
sg23
VPepperfry
p3990
sbsI484
(iasset
Asset
p3991
(dp3992
g3
I0
sg4
(dp3993
g6
I3
sg7
I6
sg8
F1.5
ssg9
VMINIMALIST
p3994
sg11
g12
sg13
VNeutral bed
p3995
sg15
g16
sg17
VKids Room
p3996
sg19
g3835
sg21
V5b860670d2024470fd8fa56a
p3997
sg23
VFlipkart
p3998
sbsI485
(iasset
Asset
p3999
(dp4000
g3
I117
sg4
(dp4001
g6
F1.33
sg7
F3.66
sg8
F1.58
ssg9
VMINIMALIST
p4002
sg11
g12
sg13
VCrafton Wood Bench
p4003
sg15
g121
sg17
VDining Room
p4004
sg19
g370
sg21
V5b853f73d2024470fd8fa542
p4005
sg23
VWayfair
p4006
sbsI486
(iasset
Asset
p4007
(dp4008
g3
I218
sg4
(dp4009
g6
F1.5
sg7
F1.73
sg8
F2.67
ssg9
VMINIMALIST
p4010
sg11
g12
sg13
VHolly Wire Dining Chair (white)
p4011
sg15
g121
sg17
VDining Room
p4012
sg19
g123
sg21
V5b85366ad2024470fd8fa4e7
p4013
sg23
VWayfair
p4014
sbsI487
(iasset
Asset
p4015
(dp4016
g3
I271
sg4
(dp4017
g6
I5
sg7
I3
sg8
F2.5
ssg9
VMINIMALIST
p4018
sg11
g12
sg13
VDerouen Dining Table
p4019
sg15
g307
sg17
VDining Room
p4020
sg19
g379
sg21
V5b853416d2024470fd8fa4e0
p4021
sg23
VWayfair
p4022
sbsI488
(iasset
Asset
p4023
(dp4024
g3
F11.99
sg4
(dp4025
g6
F1.6
sg7
F0.04
sg8
F1.6
ssg9
VCONTEMPORARY
p4026
sg11
g236
sg13
VArber Pleated Throw Pillow Cover
p4027
sg15
g238
sg17
VLiving Room
p4028
sg19
g687
sg21
V5b8530dad2024470fd8fa4cd
p4029
sg23
VWayfair
p4030
sbsI489
(iasset
Asset
p4031
(dp4032
g3
I218
sg4
(dp4033
g6
F1.52
sg7
F1.73
sg8
F2.6
ssg9
VMINIMALIST
p4034
sg11
g12
sg13
VHolly Wire Dining Chair
p4035
sg15
g121
sg17
VDining Room
p4036
sg19
g123
sg21
V5b8508f2d2024470fd8fa40b
p4037
sg23
VWayfair
p4038
sbs.